
main.elf:     file format elf32-littleriscv


Disassembly of section .text:

00000000 <entry>:
   0:	ff010113          	addi	sp,sp,-16
   4:	00112623          	sw	ra,12(sp)
   8:	00812423          	sw	s0,8(sp)
   c:	01010413          	addi	s0,sp,16
  10:	00120137          	lui	sp,0x120
  14:	ffc10113          	addi	sp,sp,-4 # 11fffc <_end+0x1f7fc>
  18:	018000ef          	jal	ra,30 <main>
  1c:	00000013          	nop
  20:	00c12083          	lw	ra,12(sp)
  24:	00812403          	lw	s0,8(sp)
  28:	01010113          	addi	sp,sp,16
  2c:	00008067          	ret

00000030 <main>:
  30:	ff010113          	addi	sp,sp,-16
  34:	00112623          	sw	ra,12(sp)
  38:	00812423          	sw	s0,8(sp)
  3c:	01010413          	addi	s0,sp,16
  40:	33c000ef          	jal	ra,37c <vga_init>
  44:	00100517          	auipc	a0,0x100
  48:	fbc50513          	addi	a0,a0,-68 # 100000 <hello>
  4c:	7ac000ef          	jal	ra,7f8 <putstr>
  50:	250000ef          	jal	ra,2a0 <wait_keyboard>
  54:	00050793          	mv	a5,a0
  58:	00078513          	mv	a0,a5
  5c:	5bc000ef          	jal	ra,618 <putch>
  60:	ff1ff06f          	j	50 <main+0x20>

00000064 <__mulsi3>:
  64:	fd010113          	addi	sp,sp,-48
  68:	02812623          	sw	s0,44(sp)
  6c:	03010413          	addi	s0,sp,48
  70:	fca42e23          	sw	a0,-36(s0)
  74:	fcb42c23          	sw	a1,-40(s0)
  78:	fe042623          	sw	zero,-20(s0)
  7c:	0380006f          	j	b4 <__mulsi3+0x50>
  80:	fdc42783          	lw	a5,-36(s0)
  84:	0017f793          	andi	a5,a5,1
  88:	00078a63          	beqz	a5,9c <__mulsi3+0x38>
  8c:	fec42703          	lw	a4,-20(s0)
  90:	fd842783          	lw	a5,-40(s0)
  94:	00f707b3          	add	a5,a4,a5
  98:	fef42623          	sw	a5,-20(s0)
  9c:	fdc42783          	lw	a5,-36(s0)
  a0:	0017d793          	srli	a5,a5,0x1
  a4:	fcf42e23          	sw	a5,-36(s0)
  a8:	fd842783          	lw	a5,-40(s0)
  ac:	00179793          	slli	a5,a5,0x1
  b0:	fcf42c23          	sw	a5,-40(s0)
  b4:	fdc42783          	lw	a5,-36(s0)
  b8:	fc0794e3          	bnez	a5,80 <__mulsi3+0x1c>
  bc:	fec42783          	lw	a5,-20(s0)
  c0:	00078513          	mv	a0,a5
  c4:	02c12403          	lw	s0,44(sp)
  c8:	03010113          	addi	sp,sp,48
  cc:	00008067          	ret

000000d0 <__umodsi3>:
  d0:	fd010113          	addi	sp,sp,-48
  d4:	02812623          	sw	s0,44(sp)
  d8:	03010413          	addi	s0,sp,48
  dc:	fca42e23          	sw	a0,-36(s0)
  e0:	fcb42c23          	sw	a1,-40(s0)
  e4:	00100793          	li	a5,1
  e8:	fef42623          	sw	a5,-20(s0)
  ec:	fe042423          	sw	zero,-24(s0)
  f0:	01c0006f          	j	10c <__umodsi3+0x3c>
  f4:	fd842783          	lw	a5,-40(s0)
  f8:	00179793          	slli	a5,a5,0x1
  fc:	fcf42c23          	sw	a5,-40(s0)
 100:	fec42783          	lw	a5,-20(s0)
 104:	00179793          	slli	a5,a5,0x1
 108:	fef42623          	sw	a5,-20(s0)
 10c:	fd842703          	lw	a4,-40(s0)
 110:	fdc42783          	lw	a5,-36(s0)
 114:	04f77e63          	bgeu	a4,a5,170 <__umodsi3+0xa0>
 118:	fec42783          	lw	a5,-20(s0)
 11c:	04078a63          	beqz	a5,170 <__umodsi3+0xa0>
 120:	fd842783          	lw	a5,-40(s0)
 124:	fc07d8e3          	bgez	a5,f4 <__umodsi3+0x24>
 128:	0480006f          	j	170 <__umodsi3+0xa0>
 12c:	fdc42703          	lw	a4,-36(s0)
 130:	fd842783          	lw	a5,-40(s0)
 134:	02f76263          	bltu	a4,a5,158 <__umodsi3+0x88>
 138:	fdc42703          	lw	a4,-36(s0)
 13c:	fd842783          	lw	a5,-40(s0)
 140:	40f707b3          	sub	a5,a4,a5
 144:	fcf42e23          	sw	a5,-36(s0)
 148:	fe842703          	lw	a4,-24(s0)
 14c:	fec42783          	lw	a5,-20(s0)
 150:	00f767b3          	or	a5,a4,a5
 154:	fef42423          	sw	a5,-24(s0)
 158:	fec42783          	lw	a5,-20(s0)
 15c:	0017d793          	srli	a5,a5,0x1
 160:	fef42623          	sw	a5,-20(s0)
 164:	fd842783          	lw	a5,-40(s0)
 168:	0017d793          	srli	a5,a5,0x1
 16c:	fcf42c23          	sw	a5,-40(s0)
 170:	fec42783          	lw	a5,-20(s0)
 174:	fa079ce3          	bnez	a5,12c <__umodsi3+0x5c>
 178:	fdc42783          	lw	a5,-36(s0)
 17c:	00078513          	mv	a0,a5
 180:	02c12403          	lw	s0,44(sp)
 184:	03010113          	addi	sp,sp,48
 188:	00008067          	ret

0000018c <__udivsi3>:
 18c:	fd010113          	addi	sp,sp,-48
 190:	02812623          	sw	s0,44(sp)
 194:	03010413          	addi	s0,sp,48
 198:	fca42e23          	sw	a0,-36(s0)
 19c:	fcb42c23          	sw	a1,-40(s0)
 1a0:	00100793          	li	a5,1
 1a4:	fef42623          	sw	a5,-20(s0)
 1a8:	fe042423          	sw	zero,-24(s0)
 1ac:	01c0006f          	j	1c8 <__udivsi3+0x3c>
 1b0:	fd842783          	lw	a5,-40(s0)
 1b4:	00179793          	slli	a5,a5,0x1
 1b8:	fcf42c23          	sw	a5,-40(s0)
 1bc:	fec42783          	lw	a5,-20(s0)
 1c0:	00179793          	slli	a5,a5,0x1
 1c4:	fef42623          	sw	a5,-20(s0)
 1c8:	fd842703          	lw	a4,-40(s0)
 1cc:	fdc42783          	lw	a5,-36(s0)
 1d0:	04f77e63          	bgeu	a4,a5,22c <__udivsi3+0xa0>
 1d4:	fec42783          	lw	a5,-20(s0)
 1d8:	04078a63          	beqz	a5,22c <__udivsi3+0xa0>
 1dc:	fd842783          	lw	a5,-40(s0)
 1e0:	fc07d8e3          	bgez	a5,1b0 <__udivsi3+0x24>
 1e4:	0480006f          	j	22c <__udivsi3+0xa0>
 1e8:	fdc42703          	lw	a4,-36(s0)
 1ec:	fd842783          	lw	a5,-40(s0)
 1f0:	02f76263          	bltu	a4,a5,214 <__udivsi3+0x88>
 1f4:	fdc42703          	lw	a4,-36(s0)
 1f8:	fd842783          	lw	a5,-40(s0)
 1fc:	40f707b3          	sub	a5,a4,a5
 200:	fcf42e23          	sw	a5,-36(s0)
 204:	fe842703          	lw	a4,-24(s0)
 208:	fec42783          	lw	a5,-20(s0)
 20c:	00f767b3          	or	a5,a4,a5
 210:	fef42423          	sw	a5,-24(s0)
 214:	fec42783          	lw	a5,-20(s0)
 218:	0017d793          	srli	a5,a5,0x1
 21c:	fef42623          	sw	a5,-20(s0)
 220:	fd842783          	lw	a5,-40(s0)
 224:	0017d793          	srli	a5,a5,0x1
 228:	fcf42c23          	sw	a5,-40(s0)
 22c:	fec42783          	lw	a5,-20(s0)
 230:	fa079ce3          	bnez	a5,1e8 <__udivsi3+0x5c>
 234:	fe842783          	lw	a5,-24(s0)
 238:	00078513          	mv	a0,a5
 23c:	02c12403          	lw	s0,44(sp)
 240:	03010113          	addi	sp,sp,48
 244:	00008067          	ret

00000248 <ptrmov>:
 248:	ff010113          	addi	sp,sp,-16
 24c:	00812623          	sw	s0,12(sp)
 250:	01010413          	addi	s0,sp,16
 254:	00100797          	auipc	a5,0x100
 258:	e0478793          	addi	a5,a5,-508 # 100058 <queue_front>
 25c:	0007a703          	lw	a4,0(a5)
 260:	003007b7          	lui	a5,0x300
 264:	10078793          	addi	a5,a5,256 # 300100 <_end+0x1ff900>
 268:	00f70c63          	beq	a4,a5,280 <ptrmov+0x38>
 26c:	00100797          	auipc	a5,0x100
 270:	dec78793          	addi	a5,a5,-532 # 100058 <queue_front>
 274:	0007a783          	lw	a5,0(a5)
 278:	00178793          	addi	a5,a5,1
 27c:	0080006f          	j	284 <ptrmov+0x3c>
 280:	003007b7          	lui	a5,0x300
 284:	00100717          	auipc	a4,0x100
 288:	dd470713          	addi	a4,a4,-556 # 100058 <queue_front>
 28c:	00f72023          	sw	a5,0(a4)
 290:	00000013          	nop
 294:	00c12403          	lw	s0,12(sp)
 298:	01010113          	addi	sp,sp,16
 29c:	00008067          	ret

000002a0 <wait_keyboard>:
 2a0:	fe010113          	addi	sp,sp,-32
 2a4:	00112e23          	sw	ra,28(sp)
 2a8:	00812c23          	sw	s0,24(sp)
 2ac:	02010413          	addi	s0,sp,32
 2b0:	0080006f          	j	2b8 <wait_keyboard+0x18>
 2b4:	f95ff0ef          	jal	ra,248 <ptrmov>
 2b8:	00100797          	auipc	a5,0x100
 2bc:	da078793          	addi	a5,a5,-608 # 100058 <queue_front>
 2c0:	0007a783          	lw	a5,0(a5)
 2c4:	0007c783          	lbu	a5,0(a5)
 2c8:	fe0786e3          	beqz	a5,2b4 <wait_keyboard+0x14>
 2cc:	00100797          	auipc	a5,0x100
 2d0:	d8c78793          	addi	a5,a5,-628 # 100058 <queue_front>
 2d4:	0007a783          	lw	a5,0(a5)
 2d8:	0007c783          	lbu	a5,0(a5)
 2dc:	fef407a3          	sb	a5,-17(s0)
 2e0:	00100797          	auipc	a5,0x100
 2e4:	d7878793          	addi	a5,a5,-648 # 100058 <queue_front>
 2e8:	0007a783          	lw	a5,0(a5)
 2ec:	00078023          	sb	zero,0(a5)
 2f0:	fef44783          	lbu	a5,-17(s0)
 2f4:	00078513          	mv	a0,a5
 2f8:	01c12083          	lw	ra,28(sp)
 2fc:	01812403          	lw	s0,24(sp)
 300:	02010113          	addi	sp,sp,32
 304:	00008067          	ret

00000308 <get_keyboard>:
 308:	fe010113          	addi	sp,sp,-32
 30c:	00112e23          	sw	ra,28(sp)
 310:	00812c23          	sw	s0,24(sp)
 314:	02010413          	addi	s0,sp,32
 318:	003007b7          	lui	a5,0x300
 31c:	fef42623          	sw	a5,-20(s0)
 320:	0340006f          	j	354 <get_keyboard+0x4c>
 324:	fec42783          	lw	a5,-20(s0)
 328:	0007c783          	lbu	a5,0(a5) # 300000 <_end+0x1ff800>
 32c:	02078263          	beqz	a5,350 <get_keyboard+0x48>
 330:	fec42783          	lw	a5,-20(s0)
 334:	0007c783          	lbu	a5,0(a5)
 338:	fef405a3          	sb	a5,-21(s0)
 33c:	fec42783          	lw	a5,-20(s0)
 340:	00078023          	sb	zero,0(a5)
 344:	fec42783          	lw	a5,-20(s0)
 348:	0007c783          	lbu	a5,0(a5)
 34c:	01c0006f          	j	368 <get_keyboard+0x60>
 350:	ef9ff0ef          	jal	ra,248 <ptrmov>
 354:	fec42703          	lw	a4,-20(s0)
 358:	003007b7          	lui	a5,0x300
 35c:	10078793          	addi	a5,a5,256 # 300100 <_end+0x1ff900>
 360:	fce7f2e3          	bgeu	a5,a4,324 <get_keyboard+0x1c>
 364:	00000793          	li	a5,0
 368:	00078513          	mv	a0,a5
 36c:	01c12083          	lw	ra,28(sp)
 370:	01812403          	lw	s0,24(sp)
 374:	02010113          	addi	sp,sp,32
 378:	00008067          	ret

0000037c <vga_init>:
 37c:	fe010113          	addi	sp,sp,-32
 380:	00812e23          	sw	s0,28(sp)
 384:	02010413          	addi	s0,sp,32
 388:	00100797          	auipc	a5,0x100
 38c:	d5078793          	addi	a5,a5,-688 # 1000d8 <vga_line>
 390:	0007a023          	sw	zero,0(a5)
 394:	00100797          	auipc	a5,0x100
 398:	d4878793          	addi	a5,a5,-696 # 1000dc <vga_ch>
 39c:	0007a023          	sw	zero,0(a5)
 3a0:	fe042623          	sw	zero,-20(s0)
 3a4:	06c0006f          	j	410 <vga_init+0x94>
 3a8:	00100717          	auipc	a4,0x100
 3ac:	cb870713          	addi	a4,a4,-840 # 100060 <charcnt>
 3b0:	fec42783          	lw	a5,-20(s0)
 3b4:	00279793          	slli	a5,a5,0x2
 3b8:	00f707b3          	add	a5,a4,a5
 3bc:	0007a023          	sw	zero,0(a5)
 3c0:	fe042423          	sw	zero,-24(s0)
 3c4:	0340006f          	j	3f8 <vga_init+0x7c>
 3c8:	00100797          	auipc	a5,0x100
 3cc:	c9478793          	addi	a5,a5,-876 # 10005c <vga_start>
 3d0:	0007a783          	lw	a5,0(a5)
 3d4:	fec42703          	lw	a4,-20(s0)
 3d8:	00771693          	slli	a3,a4,0x7
 3dc:	fe842703          	lw	a4,-24(s0)
 3e0:	00e68733          	add	a4,a3,a4
 3e4:	00e787b3          	add	a5,a5,a4
 3e8:	00078023          	sb	zero,0(a5)
 3ec:	fe842783          	lw	a5,-24(s0)
 3f0:	00178793          	addi	a5,a5,1
 3f4:	fef42423          	sw	a5,-24(s0)
 3f8:	fe842703          	lw	a4,-24(s0)
 3fc:	04500793          	li	a5,69
 400:	fce7d4e3          	bge	a5,a4,3c8 <vga_init+0x4c>
 404:	fec42783          	lw	a5,-20(s0)
 408:	00178793          	addi	a5,a5,1
 40c:	fef42623          	sw	a5,-20(s0)
 410:	fec42703          	lw	a4,-20(s0)
 414:	01d00793          	li	a5,29
 418:	f8e7d8e3          	bge	a5,a4,3a8 <vga_init+0x2c>
 41c:	00000013          	nop
 420:	00000013          	nop
 424:	01c12403          	lw	s0,28(sp)
 428:	02010113          	addi	sp,sp,32
 42c:	00008067          	ret

00000430 <roll_up>:
 430:	fd010113          	addi	sp,sp,-48
 434:	02812623          	sw	s0,44(sp)
 438:	03010413          	addi	s0,sp,48
 43c:	fe042623          	sw	zero,-20(s0)
 440:	0b00006f          	j	4f0 <roll_up+0xc0>
 444:	fec42783          	lw	a5,-20(s0)
 448:	00178793          	addi	a5,a5,1
 44c:	00100717          	auipc	a4,0x100
 450:	c1470713          	addi	a4,a4,-1004 # 100060 <charcnt>
 454:	00279793          	slli	a5,a5,0x2
 458:	00f707b3          	add	a5,a4,a5
 45c:	0007a703          	lw	a4,0(a5)
 460:	00100697          	auipc	a3,0x100
 464:	c0068693          	addi	a3,a3,-1024 # 100060 <charcnt>
 468:	fec42783          	lw	a5,-20(s0)
 46c:	00279793          	slli	a5,a5,0x2
 470:	00f687b3          	add	a5,a3,a5
 474:	00e7a023          	sw	a4,0(a5)
 478:	fe042423          	sw	zero,-24(s0)
 47c:	05c0006f          	j	4d8 <roll_up+0xa8>
 480:	fec42783          	lw	a5,-20(s0)
 484:	00779713          	slli	a4,a5,0x7
 488:	002007b7          	lui	a5,0x200
 48c:	00f70733          	add	a4,a4,a5
 490:	fe842783          	lw	a5,-24(s0)
 494:	00f707b3          	add	a5,a4,a5
 498:	fcf42e23          	sw	a5,-36(s0)
 49c:	fec42783          	lw	a5,-20(s0)
 4a0:	00178793          	addi	a5,a5,1 # 200001 <_end+0xff801>
 4a4:	00779713          	slli	a4,a5,0x7
 4a8:	002007b7          	lui	a5,0x200
 4ac:	00f70733          	add	a4,a4,a5
 4b0:	fe842783          	lw	a5,-24(s0)
 4b4:	00f707b3          	add	a5,a4,a5
 4b8:	fcf42c23          	sw	a5,-40(s0)
 4bc:	fd842783          	lw	a5,-40(s0)
 4c0:	0007c703          	lbu	a4,0(a5) # 200000 <_end+0xff800>
 4c4:	fdc42783          	lw	a5,-36(s0)
 4c8:	00e78023          	sb	a4,0(a5)
 4cc:	fe842783          	lw	a5,-24(s0)
 4d0:	00178793          	addi	a5,a5,1
 4d4:	fef42423          	sw	a5,-24(s0)
 4d8:	fe842703          	lw	a4,-24(s0)
 4dc:	04500793          	li	a5,69
 4e0:	fae7d0e3          	bge	a5,a4,480 <roll_up+0x50>
 4e4:	fec42783          	lw	a5,-20(s0)
 4e8:	00178793          	addi	a5,a5,1
 4ec:	fef42623          	sw	a5,-20(s0)
 4f0:	fec42703          	lw	a4,-20(s0)
 4f4:	01c00793          	li	a5,28
 4f8:	f4e7d6e3          	bge	a5,a4,444 <roll_up+0x14>
 4fc:	fe042223          	sw	zero,-28(s0)
 500:	02c0006f          	j	52c <roll_up+0xfc>
 504:	fe442703          	lw	a4,-28(s0)
 508:	002017b7          	lui	a5,0x201
 50c:	e8078793          	addi	a5,a5,-384 # 200e80 <_end+0x100680>
 510:	00f707b3          	add	a5,a4,a5
 514:	fef42023          	sw	a5,-32(s0)
 518:	fe042783          	lw	a5,-32(s0)
 51c:	00078023          	sb	zero,0(a5)
 520:	fe442783          	lw	a5,-28(s0)
 524:	00178793          	addi	a5,a5,1
 528:	fef42223          	sw	a5,-28(s0)
 52c:	fe442703          	lw	a4,-28(s0)
 530:	04500793          	li	a5,69
 534:	fce7d8e3          	bge	a5,a4,504 <roll_up+0xd4>
 538:	00000013          	nop
 53c:	00000013          	nop
 540:	02c12403          	lw	s0,44(sp)
 544:	03010113          	addi	sp,sp,48
 548:	00008067          	ret

0000054c <new_line>:
 54c:	ff010113          	addi	sp,sp,-16
 550:	00112623          	sw	ra,12(sp)
 554:	00812423          	sw	s0,8(sp)
 558:	01010413          	addi	s0,sp,16
 55c:	00100797          	auipc	a5,0x100
 560:	b7c78793          	addi	a5,a5,-1156 # 1000d8 <vga_line>
 564:	0007a703          	lw	a4,0(a5)
 568:	01c00793          	li	a5,28
 56c:	04e7d263          	bge	a5,a4,5b0 <new_line+0x64>
 570:	00100797          	auipc	a5,0x100
 574:	b6878793          	addi	a5,a5,-1176 # 1000d8 <vga_line>
 578:	0007a783          	lw	a5,0(a5)
 57c:	00100717          	auipc	a4,0x100
 580:	b6070713          	addi	a4,a4,-1184 # 1000dc <vga_ch>
 584:	00072703          	lw	a4,0(a4)
 588:	00100697          	auipc	a3,0x100
 58c:	ad868693          	addi	a3,a3,-1320 # 100060 <charcnt>
 590:	00279793          	slli	a5,a5,0x2
 594:	00f687b3          	add	a5,a3,a5
 598:	00e7a023          	sw	a4,0(a5)
 59c:	e95ff0ef          	jal	ra,430 <roll_up>
 5a0:	00100797          	auipc	a5,0x100
 5a4:	b3c78793          	addi	a5,a5,-1220 # 1000dc <vga_ch>
 5a8:	0007a023          	sw	zero,0(a5)
 5ac:	05c0006f          	j	608 <new_line+0xbc>
 5b0:	00100797          	auipc	a5,0x100
 5b4:	b2878793          	addi	a5,a5,-1240 # 1000d8 <vga_line>
 5b8:	0007a783          	lw	a5,0(a5)
 5bc:	00100717          	auipc	a4,0x100
 5c0:	b2070713          	addi	a4,a4,-1248 # 1000dc <vga_ch>
 5c4:	00072703          	lw	a4,0(a4)
 5c8:	00100697          	auipc	a3,0x100
 5cc:	a9868693          	addi	a3,a3,-1384 # 100060 <charcnt>
 5d0:	00279793          	slli	a5,a5,0x2
 5d4:	00f687b3          	add	a5,a3,a5
 5d8:	00e7a023          	sw	a4,0(a5)
 5dc:	00100797          	auipc	a5,0x100
 5e0:	afc78793          	addi	a5,a5,-1284 # 1000d8 <vga_line>
 5e4:	0007a783          	lw	a5,0(a5)
 5e8:	00178713          	addi	a4,a5,1
 5ec:	00100797          	auipc	a5,0x100
 5f0:	aec78793          	addi	a5,a5,-1300 # 1000d8 <vga_line>
 5f4:	00e7a023          	sw	a4,0(a5)
 5f8:	00100797          	auipc	a5,0x100
 5fc:	ae478793          	addi	a5,a5,-1308 # 1000dc <vga_ch>
 600:	0007a023          	sw	zero,0(a5)
 604:	00000013          	nop
 608:	00c12083          	lw	ra,12(sp)
 60c:	00812403          	lw	s0,8(sp)
 610:	01010113          	addi	sp,sp,16
 614:	00008067          	ret

00000618 <putch>:
 618:	fe010113          	addi	sp,sp,-32
 61c:	00112e23          	sw	ra,28(sp)
 620:	00812c23          	sw	s0,24(sp)
 624:	02010413          	addi	s0,sp,32
 628:	00050793          	mv	a5,a0
 62c:	fef407a3          	sb	a5,-17(s0)
 630:	fef44703          	lbu	a4,-17(s0)
 634:	00800793          	li	a5,8
 638:	0ef71c63          	bne	a4,a5,730 <putch+0x118>
 63c:	00100797          	auipc	a5,0x100
 640:	aa078793          	addi	a5,a5,-1376 # 1000dc <vga_ch>
 644:	0007a783          	lw	a5,0(a5)
 648:	08079a63          	bnez	a5,6dc <putch+0xc4>
 64c:	00100797          	auipc	a5,0x100
 650:	a8c78793          	addi	a5,a5,-1396 # 1000d8 <vga_line>
 654:	0007a783          	lw	a5,0(a5)
 658:	18f05263          	blez	a5,7dc <putch+0x1c4>
 65c:	00100797          	auipc	a5,0x100
 660:	a7c78793          	addi	a5,a5,-1412 # 1000d8 <vga_line>
 664:	0007a783          	lw	a5,0(a5)
 668:	fff78713          	addi	a4,a5,-1
 66c:	00100797          	auipc	a5,0x100
 670:	a6c78793          	addi	a5,a5,-1428 # 1000d8 <vga_line>
 674:	00e7a023          	sw	a4,0(a5)
 678:	00100797          	auipc	a5,0x100
 67c:	a6078793          	addi	a5,a5,-1440 # 1000d8 <vga_line>
 680:	0007a783          	lw	a5,0(a5)
 684:	00100717          	auipc	a4,0x100
 688:	9dc70713          	addi	a4,a4,-1572 # 100060 <charcnt>
 68c:	00279793          	slli	a5,a5,0x2
 690:	00f707b3          	add	a5,a4,a5
 694:	0007a703          	lw	a4,0(a5)
 698:	00100797          	auipc	a5,0x100
 69c:	a4478793          	addi	a5,a5,-1468 # 1000dc <vga_ch>
 6a0:	00e7a023          	sw	a4,0(a5)
 6a4:	00100797          	auipc	a5,0x100
 6a8:	9b878793          	addi	a5,a5,-1608 # 10005c <vga_start>
 6ac:	0007a783          	lw	a5,0(a5)
 6b0:	00100717          	auipc	a4,0x100
 6b4:	a2870713          	addi	a4,a4,-1496 # 1000d8 <vga_line>
 6b8:	00072703          	lw	a4,0(a4)
 6bc:	00771693          	slli	a3,a4,0x7
 6c0:	00100717          	auipc	a4,0x100
 6c4:	a1c70713          	addi	a4,a4,-1508 # 1000dc <vga_ch>
 6c8:	00072703          	lw	a4,0(a4)
 6cc:	00e68733          	add	a4,a3,a4
 6d0:	00e787b3          	add	a5,a5,a4
 6d4:	00078023          	sb	zero,0(a5)
 6d8:	1040006f          	j	7dc <putch+0x1c4>
 6dc:	00100797          	auipc	a5,0x100
 6e0:	a0078793          	addi	a5,a5,-1536 # 1000dc <vga_ch>
 6e4:	0007a783          	lw	a5,0(a5)
 6e8:	fff78713          	addi	a4,a5,-1
 6ec:	00100797          	auipc	a5,0x100
 6f0:	9f078793          	addi	a5,a5,-1552 # 1000dc <vga_ch>
 6f4:	00e7a023          	sw	a4,0(a5)
 6f8:	00100797          	auipc	a5,0x100
 6fc:	96478793          	addi	a5,a5,-1692 # 10005c <vga_start>
 700:	0007a783          	lw	a5,0(a5)
 704:	00100717          	auipc	a4,0x100
 708:	9d470713          	addi	a4,a4,-1580 # 1000d8 <vga_line>
 70c:	00072703          	lw	a4,0(a4)
 710:	00771693          	slli	a3,a4,0x7
 714:	00100717          	auipc	a4,0x100
 718:	9c870713          	addi	a4,a4,-1592 # 1000dc <vga_ch>
 71c:	00072703          	lw	a4,0(a4)
 720:	00e68733          	add	a4,a3,a4
 724:	00e787b3          	add	a5,a5,a4
 728:	00078023          	sb	zero,0(a5)
 72c:	0b00006f          	j	7dc <putch+0x1c4>
 730:	fef44703          	lbu	a4,-17(s0)
 734:	00a00793          	li	a5,10
 738:	00f70863          	beq	a4,a5,748 <putch+0x130>
 73c:	fef44703          	lbu	a4,-17(s0)
 740:	00d00793          	li	a5,13
 744:	00f71663          	bne	a4,a5,750 <putch+0x138>
 748:	e05ff0ef          	jal	ra,54c <new_line>
 74c:	09c0006f          	j	7e8 <putch+0x1d0>
 750:	00100797          	auipc	a5,0x100
 754:	90c78793          	addi	a5,a5,-1780 # 10005c <vga_start>
 758:	0007a783          	lw	a5,0(a5)
 75c:	00100717          	auipc	a4,0x100
 760:	97c70713          	addi	a4,a4,-1668 # 1000d8 <vga_line>
 764:	00072703          	lw	a4,0(a4)
 768:	00771693          	slli	a3,a4,0x7
 76c:	00100717          	auipc	a4,0x100
 770:	97070713          	addi	a4,a4,-1680 # 1000dc <vga_ch>
 774:	00072703          	lw	a4,0(a4)
 778:	00e68733          	add	a4,a3,a4
 77c:	00e787b3          	add	a5,a5,a4
 780:	fef44703          	lbu	a4,-17(s0)
 784:	00e78023          	sb	a4,0(a5)
 788:	00100797          	auipc	a5,0x100
 78c:	95478793          	addi	a5,a5,-1708 # 1000dc <vga_ch>
 790:	0007a783          	lw	a5,0(a5)
 794:	00178713          	addi	a4,a5,1
 798:	00100797          	auipc	a5,0x100
 79c:	94478793          	addi	a5,a5,-1724 # 1000dc <vga_ch>
 7a0:	00e7a023          	sw	a4,0(a5)
 7a4:	00100797          	auipc	a5,0x100
 7a8:	93878793          	addi	a5,a5,-1736 # 1000dc <vga_ch>
 7ac:	0007a703          	lw	a4,0(a5)
 7b0:	04500793          	li	a5,69
 7b4:	02e7d863          	bge	a5,a4,7e4 <putch+0x1cc>
 7b8:	00100797          	auipc	a5,0x100
 7bc:	92478793          	addi	a5,a5,-1756 # 1000dc <vga_ch>
 7c0:	0007a783          	lw	a5,0(a5)
 7c4:	fff78713          	addi	a4,a5,-1
 7c8:	00100797          	auipc	a5,0x100
 7cc:	91478793          	addi	a5,a5,-1772 # 1000dc <vga_ch>
 7d0:	00e7a023          	sw	a4,0(a5)
 7d4:	d79ff0ef          	jal	ra,54c <new_line>
 7d8:	00c0006f          	j	7e4 <putch+0x1cc>
 7dc:	00000013          	nop
 7e0:	0080006f          	j	7e8 <putch+0x1d0>
 7e4:	00000013          	nop
 7e8:	01c12083          	lw	ra,28(sp)
 7ec:	01812403          	lw	s0,24(sp)
 7f0:	02010113          	addi	sp,sp,32
 7f4:	00008067          	ret

000007f8 <putstr>:
 7f8:	fd010113          	addi	sp,sp,-48
 7fc:	02112623          	sw	ra,44(sp)
 800:	02812423          	sw	s0,40(sp)
 804:	03010413          	addi	s0,sp,48
 808:	fca42e23          	sw	a0,-36(s0)
 80c:	fdc42783          	lw	a5,-36(s0)
 810:	fef42623          	sw	a5,-20(s0)
 814:	0200006f          	j	834 <putstr+0x3c>
 818:	fec42783          	lw	a5,-20(s0)
 81c:	0007c783          	lbu	a5,0(a5)
 820:	00078513          	mv	a0,a5
 824:	df5ff0ef          	jal	ra,618 <putch>
 828:	fec42783          	lw	a5,-20(s0)
 82c:	00178793          	addi	a5,a5,1
 830:	fef42623          	sw	a5,-20(s0)
 834:	fec42783          	lw	a5,-20(s0)
 838:	0007c783          	lbu	a5,0(a5)
 83c:	fc079ee3          	bnez	a5,818 <putstr+0x20>
 840:	00000013          	nop
 844:	00000013          	nop
 848:	02c12083          	lw	ra,44(sp)
 84c:	02812403          	lw	s0,40(sp)
 850:	03010113          	addi	sp,sp,48
 854:	00008067          	ret
