
main.elf:     file format elf32-littleriscv


Disassembly of section .text:

00000000 <entry>:
       0:	ff010113          	addi	sp,sp,-16
       4:	00112623          	sw	ra,12(sp)
       8:	00812423          	sw	s0,8(sp)
       c:	01010413          	addi	s0,sp,16
      10:	00120137          	lui	sp,0x120
      14:	ffc10113          	addi	sp,sp,-4 # 11fffc <_end+0x1a3fc>
      18:	018000ef          	jal	ra,30 <main>
      1c:	00000013          	nop
      20:	00c12083          	lw	ra,12(sp)
      24:	00812403          	lw	s0,8(sp)
      28:	01010113          	addi	sp,sp,16
      2c:	00008067          	ret

00000030 <main>:
      30:	ff010113          	addi	sp,sp,-16
      34:	00112623          	sw	ra,12(sp)
      38:	00812423          	sw	s0,8(sp)
      3c:	01010413          	addi	s0,sp,16
      40:	768020ef          	jal	ra,27a8 <vga_init>
      44:	3e8020ef          	jal	ra,242c <ternimal_loop>
      48:	00000793          	li	a5,0
      4c:	00078513          	mv	a0,a5
      50:	00c12083          	lw	ra,12(sp)
      54:	00812403          	lw	s0,8(sp)
      58:	01010113          	addi	sp,sp,16
      5c:	00008067          	ret

00000060 <__mulsi3>:
      60:	fd010113          	addi	sp,sp,-48
      64:	02812623          	sw	s0,44(sp)
      68:	03010413          	addi	s0,sp,48
      6c:	fca42e23          	sw	a0,-36(s0)
      70:	fcb42c23          	sw	a1,-40(s0)
      74:	fe042623          	sw	zero,-20(s0)
      78:	0380006f          	j	b0 <__mulsi3+0x50>
      7c:	fdc42783          	lw	a5,-36(s0)
      80:	0017f793          	andi	a5,a5,1
      84:	00078a63          	beqz	a5,98 <__mulsi3+0x38>
      88:	fec42703          	lw	a4,-20(s0)
      8c:	fd842783          	lw	a5,-40(s0)
      90:	00f707b3          	add	a5,a4,a5
      94:	fef42623          	sw	a5,-20(s0)
      98:	fdc42783          	lw	a5,-36(s0)
      9c:	0017d793          	srli	a5,a5,0x1
      a0:	fcf42e23          	sw	a5,-36(s0)
      a4:	fd842783          	lw	a5,-40(s0)
      a8:	00179793          	slli	a5,a5,0x1
      ac:	fcf42c23          	sw	a5,-40(s0)
      b0:	fdc42783          	lw	a5,-36(s0)
      b4:	fc0794e3          	bnez	a5,7c <__mulsi3+0x1c>
      b8:	fec42783          	lw	a5,-20(s0)
      bc:	00078513          	mv	a0,a5
      c0:	02c12403          	lw	s0,44(sp)
      c4:	03010113          	addi	sp,sp,48
      c8:	00008067          	ret

000000cc <__umodsi3>:
      cc:	fd010113          	addi	sp,sp,-48
      d0:	02812623          	sw	s0,44(sp)
      d4:	03010413          	addi	s0,sp,48
      d8:	fca42e23          	sw	a0,-36(s0)
      dc:	fcb42c23          	sw	a1,-40(s0)
      e0:	00100793          	li	a5,1
      e4:	fef42623          	sw	a5,-20(s0)
      e8:	fe042423          	sw	zero,-24(s0)
      ec:	01c0006f          	j	108 <__umodsi3+0x3c>
      f0:	fd842783          	lw	a5,-40(s0)
      f4:	00179793          	slli	a5,a5,0x1
      f8:	fcf42c23          	sw	a5,-40(s0)
      fc:	fec42783          	lw	a5,-20(s0)
     100:	00179793          	slli	a5,a5,0x1
     104:	fef42623          	sw	a5,-20(s0)
     108:	fd842703          	lw	a4,-40(s0)
     10c:	fdc42783          	lw	a5,-36(s0)
     110:	04f77e63          	bgeu	a4,a5,16c <__umodsi3+0xa0>
     114:	fec42783          	lw	a5,-20(s0)
     118:	04078a63          	beqz	a5,16c <__umodsi3+0xa0>
     11c:	fd842783          	lw	a5,-40(s0)
     120:	fc07d8e3          	bgez	a5,f0 <__umodsi3+0x24>
     124:	0480006f          	j	16c <__umodsi3+0xa0>
     128:	fdc42703          	lw	a4,-36(s0)
     12c:	fd842783          	lw	a5,-40(s0)
     130:	02f76263          	bltu	a4,a5,154 <__umodsi3+0x88>
     134:	fdc42703          	lw	a4,-36(s0)
     138:	fd842783          	lw	a5,-40(s0)
     13c:	40f707b3          	sub	a5,a4,a5
     140:	fcf42e23          	sw	a5,-36(s0)
     144:	fe842703          	lw	a4,-24(s0)
     148:	fec42783          	lw	a5,-20(s0)
     14c:	00f767b3          	or	a5,a4,a5
     150:	fef42423          	sw	a5,-24(s0)
     154:	fec42783          	lw	a5,-20(s0)
     158:	0017d793          	srli	a5,a5,0x1
     15c:	fef42623          	sw	a5,-20(s0)
     160:	fd842783          	lw	a5,-40(s0)
     164:	0017d793          	srli	a5,a5,0x1
     168:	fcf42c23          	sw	a5,-40(s0)
     16c:	fec42783          	lw	a5,-20(s0)
     170:	fa079ce3          	bnez	a5,128 <__umodsi3+0x5c>
     174:	fdc42783          	lw	a5,-36(s0)
     178:	00078513          	mv	a0,a5
     17c:	02c12403          	lw	s0,44(sp)
     180:	03010113          	addi	sp,sp,48
     184:	00008067          	ret

00000188 <__udivsi3>:
     188:	fd010113          	addi	sp,sp,-48
     18c:	02812623          	sw	s0,44(sp)
     190:	03010413          	addi	s0,sp,48
     194:	fca42e23          	sw	a0,-36(s0)
     198:	fcb42c23          	sw	a1,-40(s0)
     19c:	00100793          	li	a5,1
     1a0:	fef42623          	sw	a5,-20(s0)
     1a4:	fe042423          	sw	zero,-24(s0)
     1a8:	01c0006f          	j	1c4 <__udivsi3+0x3c>
     1ac:	fd842783          	lw	a5,-40(s0)
     1b0:	00179793          	slli	a5,a5,0x1
     1b4:	fcf42c23          	sw	a5,-40(s0)
     1b8:	fec42783          	lw	a5,-20(s0)
     1bc:	00179793          	slli	a5,a5,0x1
     1c0:	fef42623          	sw	a5,-20(s0)
     1c4:	fd842703          	lw	a4,-40(s0)
     1c8:	fdc42783          	lw	a5,-36(s0)
     1cc:	04f77e63          	bgeu	a4,a5,228 <__udivsi3+0xa0>
     1d0:	fec42783          	lw	a5,-20(s0)
     1d4:	04078a63          	beqz	a5,228 <__udivsi3+0xa0>
     1d8:	fd842783          	lw	a5,-40(s0)
     1dc:	fc07d8e3          	bgez	a5,1ac <__udivsi3+0x24>
     1e0:	0480006f          	j	228 <__udivsi3+0xa0>
     1e4:	fdc42703          	lw	a4,-36(s0)
     1e8:	fd842783          	lw	a5,-40(s0)
     1ec:	02f76263          	bltu	a4,a5,210 <__udivsi3+0x88>
     1f0:	fdc42703          	lw	a4,-36(s0)
     1f4:	fd842783          	lw	a5,-40(s0)
     1f8:	40f707b3          	sub	a5,a4,a5
     1fc:	fcf42e23          	sw	a5,-36(s0)
     200:	fe842703          	lw	a4,-24(s0)
     204:	fec42783          	lw	a5,-20(s0)
     208:	00f767b3          	or	a5,a4,a5
     20c:	fef42423          	sw	a5,-24(s0)
     210:	fec42783          	lw	a5,-20(s0)
     214:	0017d793          	srli	a5,a5,0x1
     218:	fef42623          	sw	a5,-20(s0)
     21c:	fd842783          	lw	a5,-40(s0)
     220:	0017d793          	srli	a5,a5,0x1
     224:	fcf42c23          	sw	a5,-40(s0)
     228:	fec42783          	lw	a5,-20(s0)
     22c:	fa079ce3          	bnez	a5,1e4 <__udivsi3+0x5c>
     230:	fe842783          	lw	a5,-24(s0)
     234:	00078513          	mv	a0,a5
     238:	02c12403          	lw	s0,44(sp)
     23c:	03010113          	addi	sp,sp,48
     240:	00008067          	ret

00000244 <rand>:
     244:	ff010113          	addi	sp,sp,-16
     248:	00812623          	sw	s0,12(sp)
     24c:	01010413          	addi	s0,sp,16
     250:	00100797          	auipc	a5,0x100
     254:	4f478793          	addi	a5,a5,1268 # 100744 <next>
     258:	0007a703          	lw	a4,0(a5)
     25c:	00070793          	mv	a5,a4
     260:	00879793          	slli	a5,a5,0x8
     264:	40e787b3          	sub	a5,a5,a4
     268:	00379793          	slli	a5,a5,0x3
     26c:	00e787b3          	add	a5,a5,a4
     270:	00779793          	slli	a5,a5,0x7
     274:	00e787b3          	add	a5,a5,a4
     278:	00379793          	slli	a5,a5,0x3
     27c:	40e787b3          	sub	a5,a5,a4
     280:	00579693          	slli	a3,a5,0x5
     284:	00d787b3          	add	a5,a5,a3
     288:	00279793          	slli	a5,a5,0x2
     28c:	40e787b3          	sub	a5,a5,a4
     290:	00279793          	slli	a5,a5,0x2
     294:	00e78733          	add	a4,a5,a4
     298:	000037b7          	lui	a5,0x3
     29c:	03978793          	addi	a5,a5,57 # 3039 <_etext+0x95>
     2a0:	00f70733          	add	a4,a4,a5
     2a4:	00100797          	auipc	a5,0x100
     2a8:	4a078793          	addi	a5,a5,1184 # 100744 <next>
     2ac:	00e7a023          	sw	a4,0(a5)
     2b0:	00100797          	auipc	a5,0x100
     2b4:	49478793          	addi	a5,a5,1172 # 100744 <next>
     2b8:	0007a783          	lw	a5,0(a5)
     2bc:	0107d793          	srli	a5,a5,0x10
     2c0:	00078713          	mv	a4,a5
     2c4:	000087b7          	lui	a5,0x8
     2c8:	fff78793          	addi	a5,a5,-1 # 7fff <_etext+0x505b>
     2cc:	00f777b3          	and	a5,a4,a5
     2d0:	00078513          	mv	a0,a5
     2d4:	00c12403          	lw	s0,12(sp)
     2d8:	01010113          	addi	sp,sp,16
     2dc:	00008067          	ret

000002e0 <srand>:
     2e0:	fe010113          	addi	sp,sp,-32
     2e4:	00812e23          	sw	s0,28(sp)
     2e8:	02010413          	addi	s0,sp,32
     2ec:	fea42623          	sw	a0,-20(s0)
     2f0:	00100797          	auipc	a5,0x100
     2f4:	45478793          	addi	a5,a5,1108 # 100744 <next>
     2f8:	fec42703          	lw	a4,-20(s0)
     2fc:	00e7a023          	sw	a4,0(a5)
     300:	00000013          	nop
     304:	01c12403          	lw	s0,28(sp)
     308:	02010113          	addi	sp,sp,32
     30c:	00008067          	ret

00000310 <abs>:
     310:	fe010113          	addi	sp,sp,-32
     314:	00812e23          	sw	s0,28(sp)
     318:	02010413          	addi	s0,sp,32
     31c:	fea42623          	sw	a0,-20(s0)
     320:	fec42783          	lw	a5,-20(s0)
     324:	41f7d713          	srai	a4,a5,0x1f
     328:	fec42783          	lw	a5,-20(s0)
     32c:	00f747b3          	xor	a5,a4,a5
     330:	40e787b3          	sub	a5,a5,a4
     334:	00078513          	mv	a0,a5
     338:	01c12403          	lw	s0,28(sp)
     33c:	02010113          	addi	sp,sp,32
     340:	00008067          	ret

00000344 <atoi>:
     344:	fd010113          	addi	sp,sp,-48
     348:	02812623          	sw	s0,44(sp)
     34c:	03010413          	addi	s0,sp,48
     350:	fca42e23          	sw	a0,-36(s0)
     354:	fe042623          	sw	zero,-20(s0)
     358:	0100006f          	j	368 <atoi+0x24>
     35c:	fdc42783          	lw	a5,-36(s0)
     360:	00178793          	addi	a5,a5,1
     364:	fcf42e23          	sw	a5,-36(s0)
     368:	fdc42783          	lw	a5,-36(s0)
     36c:	0007c703          	lbu	a4,0(a5)
     370:	02000793          	li	a5,32
     374:	fef704e3          	beq	a4,a5,35c <atoi+0x18>
     378:	03c0006f          	j	3b4 <atoi+0x70>
     37c:	fec42703          	lw	a4,-20(s0)
     380:	00070793          	mv	a5,a4
     384:	00279793          	slli	a5,a5,0x2
     388:	00e787b3          	add	a5,a5,a4
     38c:	00179793          	slli	a5,a5,0x1
     390:	00078713          	mv	a4,a5
     394:	fdc42783          	lw	a5,-36(s0)
     398:	0007c783          	lbu	a5,0(a5)
     39c:	00f707b3          	add	a5,a4,a5
     3a0:	fd078793          	addi	a5,a5,-48
     3a4:	fef42623          	sw	a5,-20(s0)
     3a8:	fdc42783          	lw	a5,-36(s0)
     3ac:	00178793          	addi	a5,a5,1
     3b0:	fcf42e23          	sw	a5,-36(s0)
     3b4:	fdc42783          	lw	a5,-36(s0)
     3b8:	0007c703          	lbu	a4,0(a5)
     3bc:	02f00793          	li	a5,47
     3c0:	00e7fa63          	bgeu	a5,a4,3d4 <atoi+0x90>
     3c4:	fdc42783          	lw	a5,-36(s0)
     3c8:	0007c703          	lbu	a4,0(a5)
     3cc:	03900793          	li	a5,57
     3d0:	fae7f6e3          	bgeu	a5,a4,37c <atoi+0x38>
     3d4:	fec42783          	lw	a5,-20(s0)
     3d8:	00078513          	mv	a0,a5
     3dc:	02c12403          	lw	s0,44(sp)
     3e0:	03010113          	addi	sp,sp,48
     3e4:	00008067          	ret

000003e8 <itoa>:
     3e8:	fb010113          	addi	sp,sp,-80
     3ec:	04112623          	sw	ra,76(sp)
     3f0:	04812423          	sw	s0,72(sp)
     3f4:	05010413          	addi	s0,sp,80
     3f8:	faa42e23          	sw	a0,-68(s0)
     3fc:	fab42c23          	sw	a1,-72(s0)
     400:	fac42a23          	sw	a2,-76(s0)
     404:	fe042623          	sw	zero,-20(s0)
     408:	0200006f          	j	428 <itoa+0x40>
     40c:	fec42783          	lw	a5,-20(s0)
     410:	fb842703          	lw	a4,-72(s0)
     414:	00f707b3          	add	a5,a4,a5
     418:	00078023          	sb	zero,0(a5)
     41c:	fec42783          	lw	a5,-20(s0)
     420:	00178793          	addi	a5,a5,1
     424:	fef42623          	sw	a5,-20(s0)
     428:	fec42703          	lw	a4,-20(s0)
     42c:	01f00793          	li	a5,31
     430:	fce7dee3          	bge	a5,a4,40c <itoa+0x24>
     434:	fb842783          	lw	a5,-72(s0)
     438:	fef42423          	sw	a5,-24(s0)
     43c:	fbc42703          	lw	a4,-68(s0)
     440:	fb442783          	lw	a5,-76(s0)
     444:	02f77a63          	bgeu	a4,a5,478 <itoa+0x90>
     448:	fe842783          	lw	a5,-24(s0)
     44c:	00178713          	addi	a4,a5,1
     450:	fee42423          	sw	a4,-24(s0)
     454:	00100697          	auipc	a3,0x100
     458:	bac68693          	addi	a3,a3,-1108 # 100000 <digit.0>
     45c:	fbc42703          	lw	a4,-68(s0)
     460:	00e68733          	add	a4,a3,a4
     464:	00074703          	lbu	a4,0(a4)
     468:	00e78023          	sb	a4,0(a5)
     46c:	fe842783          	lw	a5,-24(s0)
     470:	00078023          	sb	zero,0(a5)
     474:	0b80006f          	j	52c <itoa+0x144>
     478:	fc440793          	addi	a5,s0,-60
     47c:	fef42223          	sw	a5,-28(s0)
     480:	0500006f          	j	4d0 <itoa+0xe8>
     484:	fbc42783          	lw	a5,-68(s0)
     488:	fb442583          	lw	a1,-76(s0)
     48c:	00078513          	mv	a0,a5
     490:	c3dff0ef          	jal	ra,cc <__umodsi3>
     494:	00050793          	mv	a5,a0
     498:	00078693          	mv	a3,a5
     49c:	fe442783          	lw	a5,-28(s0)
     4a0:	00178713          	addi	a4,a5,1
     4a4:	fee42223          	sw	a4,-28(s0)
     4a8:	00100717          	auipc	a4,0x100
     4ac:	b5870713          	addi	a4,a4,-1192 # 100000 <digit.0>
     4b0:	00d70733          	add	a4,a4,a3
     4b4:	00074703          	lbu	a4,0(a4)
     4b8:	00e78023          	sb	a4,0(a5)
     4bc:	fb442583          	lw	a1,-76(s0)
     4c0:	fbc42503          	lw	a0,-68(s0)
     4c4:	cc5ff0ef          	jal	ra,188 <__udivsi3>
     4c8:	00050793          	mv	a5,a0
     4cc:	faf42e23          	sw	a5,-68(s0)
     4d0:	fbc42783          	lw	a5,-68(s0)
     4d4:	fa0798e3          	bnez	a5,484 <itoa+0x9c>
     4d8:	01c0006f          	j	4f4 <itoa+0x10c>
     4dc:	fe842783          	lw	a5,-24(s0)
     4e0:	00178713          	addi	a4,a5,1
     4e4:	fee42423          	sw	a4,-24(s0)
     4e8:	fe442703          	lw	a4,-28(s0)
     4ec:	00074703          	lbu	a4,0(a4)
     4f0:	00e78023          	sb	a4,0(a5)
     4f4:	fe442783          	lw	a5,-28(s0)
     4f8:	fff78793          	addi	a5,a5,-1
     4fc:	fef42223          	sw	a5,-28(s0)
     500:	fc440793          	addi	a5,s0,-60
     504:	fe442703          	lw	a4,-28(s0)
     508:	fcf71ae3          	bne	a4,a5,4dc <itoa+0xf4>
     50c:	fe842783          	lw	a5,-24(s0)
     510:	00178713          	addi	a4,a5,1
     514:	fee42423          	sw	a4,-24(s0)
     518:	fe442703          	lw	a4,-28(s0)
     51c:	00074703          	lbu	a4,0(a4)
     520:	00e78023          	sb	a4,0(a5)
     524:	fe842783          	lw	a5,-24(s0)
     528:	00078023          	sb	zero,0(a5)
     52c:	fe842703          	lw	a4,-24(s0)
     530:	fb842783          	lw	a5,-72(s0)
     534:	40f707b3          	sub	a5,a4,a5
     538:	00078513          	mv	a0,a5
     53c:	04c12083          	lw	ra,76(sp)
     540:	04812403          	lw	s0,72(sp)
     544:	05010113          	addi	sp,sp,80
     548:	00008067          	ret

0000054c <strlen>:
     54c:	fd010113          	addi	sp,sp,-48
     550:	02812623          	sw	s0,44(sp)
     554:	03010413          	addi	s0,sp,48
     558:	fca42e23          	sw	a0,-36(s0)
     55c:	fe042623          	sw	zero,-20(s0)
     560:	01c0006f          	j	57c <strlen+0x30>
     564:	fdc42783          	lw	a5,-36(s0)
     568:	00178793          	addi	a5,a5,1
     56c:	fcf42e23          	sw	a5,-36(s0)
     570:	fec42783          	lw	a5,-20(s0)
     574:	00178793          	addi	a5,a5,1
     578:	fef42623          	sw	a5,-20(s0)
     57c:	fdc42783          	lw	a5,-36(s0)
     580:	0007c783          	lbu	a5,0(a5)
     584:	fe0790e3          	bnez	a5,564 <strlen+0x18>
     588:	fec42783          	lw	a5,-20(s0)
     58c:	00078513          	mv	a0,a5
     590:	02c12403          	lw	s0,44(sp)
     594:	03010113          	addi	sp,sp,48
     598:	00008067          	ret

0000059c <strcpy>:
     59c:	fd010113          	addi	sp,sp,-48
     5a0:	02812623          	sw	s0,44(sp)
     5a4:	03010413          	addi	s0,sp,48
     5a8:	fca42e23          	sw	a0,-36(s0)
     5ac:	fcb42c23          	sw	a1,-40(s0)
     5b0:	fdc42783          	lw	a5,-36(s0)
     5b4:	fef42623          	sw	a5,-20(s0)
     5b8:	02c0006f          	j	5e4 <strcpy+0x48>
     5bc:	fd842783          	lw	a5,-40(s0)
     5c0:	0007c703          	lbu	a4,0(a5)
     5c4:	fdc42783          	lw	a5,-36(s0)
     5c8:	00e78023          	sb	a4,0(a5)
     5cc:	fdc42783          	lw	a5,-36(s0)
     5d0:	00178793          	addi	a5,a5,1
     5d4:	fcf42e23          	sw	a5,-36(s0)
     5d8:	fd842783          	lw	a5,-40(s0)
     5dc:	00178793          	addi	a5,a5,1
     5e0:	fcf42c23          	sw	a5,-40(s0)
     5e4:	fd842783          	lw	a5,-40(s0)
     5e8:	0007c783          	lbu	a5,0(a5)
     5ec:	fc0798e3          	bnez	a5,5bc <strcpy+0x20>
     5f0:	fdc42783          	lw	a5,-36(s0)
     5f4:	00078023          	sb	zero,0(a5)
     5f8:	fec42783          	lw	a5,-20(s0)
     5fc:	00078513          	mv	a0,a5
     600:	02c12403          	lw	s0,44(sp)
     604:	03010113          	addi	sp,sp,48
     608:	00008067          	ret

0000060c <strncpy>:
     60c:	fd010113          	addi	sp,sp,-48
     610:	02812623          	sw	s0,44(sp)
     614:	03010413          	addi	s0,sp,48
     618:	fca42e23          	sw	a0,-36(s0)
     61c:	fcb42c23          	sw	a1,-40(s0)
     620:	fcc42a23          	sw	a2,-44(s0)
     624:	fdc42783          	lw	a5,-36(s0)
     628:	fef42623          	sw	a5,-20(s0)
     62c:	02c0006f          	j	658 <strncpy+0x4c>
     630:	fd842783          	lw	a5,-40(s0)
     634:	0007c703          	lbu	a4,0(a5)
     638:	fdc42783          	lw	a5,-36(s0)
     63c:	00e78023          	sb	a4,0(a5)
     640:	fdc42783          	lw	a5,-36(s0)
     644:	00178793          	addi	a5,a5,1
     648:	fcf42e23          	sw	a5,-36(s0)
     64c:	fd842783          	lw	a5,-40(s0)
     650:	00178793          	addi	a5,a5,1
     654:	fcf42c23          	sw	a5,-40(s0)
     658:	fd442783          	lw	a5,-44(s0)
     65c:	fff78713          	addi	a4,a5,-1
     660:	fce42a23          	sw	a4,-44(s0)
     664:	fc0796e3          	bnez	a5,630 <strncpy+0x24>
     668:	fdc42783          	lw	a5,-36(s0)
     66c:	00078023          	sb	zero,0(a5)
     670:	fec42783          	lw	a5,-20(s0)
     674:	00078513          	mv	a0,a5
     678:	02c12403          	lw	s0,44(sp)
     67c:	03010113          	addi	sp,sp,48
     680:	00008067          	ret

00000684 <strcat>:
     684:	fd010113          	addi	sp,sp,-48
     688:	02812623          	sw	s0,44(sp)
     68c:	03010413          	addi	s0,sp,48
     690:	fca42e23          	sw	a0,-36(s0)
     694:	fcb42c23          	sw	a1,-40(s0)
     698:	fdc42783          	lw	a5,-36(s0)
     69c:	fef42623          	sw	a5,-20(s0)
     6a0:	0100006f          	j	6b0 <strcat+0x2c>
     6a4:	fdc42783          	lw	a5,-36(s0)
     6a8:	00178793          	addi	a5,a5,1
     6ac:	fcf42e23          	sw	a5,-36(s0)
     6b0:	fdc42783          	lw	a5,-36(s0)
     6b4:	0007c783          	lbu	a5,0(a5)
     6b8:	fe0796e3          	bnez	a5,6a4 <strcat+0x20>
     6bc:	02c0006f          	j	6e8 <strcat+0x64>
     6c0:	fd842783          	lw	a5,-40(s0)
     6c4:	0007c703          	lbu	a4,0(a5)
     6c8:	fdc42783          	lw	a5,-36(s0)
     6cc:	00e78023          	sb	a4,0(a5)
     6d0:	fdc42783          	lw	a5,-36(s0)
     6d4:	00178793          	addi	a5,a5,1
     6d8:	fcf42e23          	sw	a5,-36(s0)
     6dc:	fd842783          	lw	a5,-40(s0)
     6e0:	00178793          	addi	a5,a5,1
     6e4:	fcf42c23          	sw	a5,-40(s0)
     6e8:	fd842783          	lw	a5,-40(s0)
     6ec:	0007c783          	lbu	a5,0(a5)
     6f0:	fc0798e3          	bnez	a5,6c0 <strcat+0x3c>
     6f4:	fdc42783          	lw	a5,-36(s0)
     6f8:	00078023          	sb	zero,0(a5)
     6fc:	fec42783          	lw	a5,-20(s0)
     700:	00078513          	mv	a0,a5
     704:	02c12403          	lw	s0,44(sp)
     708:	03010113          	addi	sp,sp,48
     70c:	00008067          	ret

00000710 <strcmp>:
     710:	fe010113          	addi	sp,sp,-32
     714:	00812e23          	sw	s0,28(sp)
     718:	02010413          	addi	s0,sp,32
     71c:	fea42623          	sw	a0,-20(s0)
     720:	feb42423          	sw	a1,-24(s0)
     724:	0300006f          	j	754 <strcmp+0x44>
     728:	fec42783          	lw	a5,-20(s0)
     72c:	0007c783          	lbu	a5,0(a5)
     730:	00079663          	bnez	a5,73c <strcmp+0x2c>
     734:	00000793          	li	a5,0
     738:	0500006f          	j	788 <strcmp+0x78>
     73c:	fec42783          	lw	a5,-20(s0)
     740:	00178793          	addi	a5,a5,1
     744:	fef42623          	sw	a5,-20(s0)
     748:	fe842783          	lw	a5,-24(s0)
     74c:	00178793          	addi	a5,a5,1
     750:	fef42423          	sw	a5,-24(s0)
     754:	fec42783          	lw	a5,-20(s0)
     758:	0007c703          	lbu	a4,0(a5)
     75c:	fe842783          	lw	a5,-24(s0)
     760:	0007c783          	lbu	a5,0(a5)
     764:	fcf702e3          	beq	a4,a5,728 <strcmp+0x18>
     768:	fec42783          	lw	a5,-20(s0)
     76c:	0007c703          	lbu	a4,0(a5)
     770:	fe842783          	lw	a5,-24(s0)
     774:	0007c783          	lbu	a5,0(a5)
     778:	00e7f663          	bgeu	a5,a4,784 <strcmp+0x74>
     77c:	00100793          	li	a5,1
     780:	0080006f          	j	788 <strcmp+0x78>
     784:	fff00793          	li	a5,-1
     788:	00078513          	mv	a0,a5
     78c:	01c12403          	lw	s0,28(sp)
     790:	02010113          	addi	sp,sp,32
     794:	00008067          	ret

00000798 <strncmp>:
     798:	fe010113          	addi	sp,sp,-32
     79c:	00812e23          	sw	s0,28(sp)
     7a0:	02010413          	addi	s0,sp,32
     7a4:	fea42623          	sw	a0,-20(s0)
     7a8:	feb42423          	sw	a1,-24(s0)
     7ac:	fec42223          	sw	a2,-28(s0)
     7b0:	0540006f          	j	804 <strncmp+0x6c>
     7b4:	fec42783          	lw	a5,-20(s0)
     7b8:	0007c703          	lbu	a4,0(a5)
     7bc:	fe842783          	lw	a5,-24(s0)
     7c0:	0007c783          	lbu	a5,0(a5)
     7c4:	02f70463          	beq	a4,a5,7ec <strncmp+0x54>
     7c8:	fec42783          	lw	a5,-20(s0)
     7cc:	0007c703          	lbu	a4,0(a5)
     7d0:	fe842783          	lw	a5,-24(s0)
     7d4:	0007c783          	lbu	a5,0(a5)
     7d8:	00e7f663          	bgeu	a5,a4,7e4 <strncmp+0x4c>
     7dc:	00100793          	li	a5,1
     7e0:	0380006f          	j	818 <strncmp+0x80>
     7e4:	fff00793          	li	a5,-1
     7e8:	0300006f          	j	818 <strncmp+0x80>
     7ec:	fec42783          	lw	a5,-20(s0)
     7f0:	00178793          	addi	a5,a5,1
     7f4:	fef42623          	sw	a5,-20(s0)
     7f8:	fe842783          	lw	a5,-24(s0)
     7fc:	00178793          	addi	a5,a5,1
     800:	fef42423          	sw	a5,-24(s0)
     804:	fe442783          	lw	a5,-28(s0)
     808:	fff78713          	addi	a4,a5,-1
     80c:	fee42223          	sw	a4,-28(s0)
     810:	fa0792e3          	bnez	a5,7b4 <strncmp+0x1c>
     814:	00000793          	li	a5,0
     818:	00078513          	mv	a0,a5
     81c:	01c12403          	lw	s0,28(sp)
     820:	02010113          	addi	sp,sp,32
     824:	00008067          	ret

00000828 <memset>:
     828:	fd010113          	addi	sp,sp,-48
     82c:	02812623          	sw	s0,44(sp)
     830:	03010413          	addi	s0,sp,48
     834:	fca42e23          	sw	a0,-36(s0)
     838:	fcb42c23          	sw	a1,-40(s0)
     83c:	fcc42a23          	sw	a2,-44(s0)
     840:	fdc42783          	lw	a5,-36(s0)
     844:	fef42623          	sw	a5,-20(s0)
     848:	fec42783          	lw	a5,-20(s0)
     84c:	02078c63          	beqz	a5,884 <memset+0x5c>
     850:	02c0006f          	j	87c <memset+0x54>
     854:	fd842783          	lw	a5,-40(s0)
     858:	0ff7f713          	andi	a4,a5,255
     85c:	fec42783          	lw	a5,-20(s0)
     860:	00e78023          	sb	a4,0(a5)
     864:	fec42783          	lw	a5,-20(s0)
     868:	00178793          	addi	a5,a5,1
     86c:	fef42623          	sw	a5,-20(s0)
     870:	fd442783          	lw	a5,-44(s0)
     874:	fff78793          	addi	a5,a5,-1
     878:	fcf42a23          	sw	a5,-44(s0)
     87c:	fd442783          	lw	a5,-44(s0)
     880:	fc079ae3          	bnez	a5,854 <memset+0x2c>
     884:	fdc42783          	lw	a5,-36(s0)
     888:	00078513          	mv	a0,a5
     88c:	02c12403          	lw	s0,44(sp)
     890:	03010113          	addi	sp,sp,48
     894:	00008067          	ret

00000898 <memmove>:
     898:	fd010113          	addi	sp,sp,-48
     89c:	02812623          	sw	s0,44(sp)
     8a0:	03010413          	addi	s0,sp,48
     8a4:	fca42e23          	sw	a0,-36(s0)
     8a8:	fcb42c23          	sw	a1,-40(s0)
     8ac:	fcc42a23          	sw	a2,-44(s0)
     8b0:	fdc42783          	lw	a5,-36(s0)
     8b4:	fef42623          	sw	a5,-20(s0)
     8b8:	fd842783          	lw	a5,-40(s0)
     8bc:	fef42423          	sw	a5,-24(s0)
     8c0:	fec42703          	lw	a4,-20(s0)
     8c4:	fe842783          	lw	a5,-24(s0)
     8c8:	06f77263          	bgeu	a4,a5,92c <memmove+0x94>
     8cc:	02c0006f          	j	8f8 <memmove+0x60>
     8d0:	fe842783          	lw	a5,-24(s0)
     8d4:	0007c703          	lbu	a4,0(a5)
     8d8:	fec42783          	lw	a5,-20(s0)
     8dc:	00e78023          	sb	a4,0(a5)
     8e0:	fec42783          	lw	a5,-20(s0)
     8e4:	00178793          	addi	a5,a5,1
     8e8:	fef42623          	sw	a5,-20(s0)
     8ec:	fe842783          	lw	a5,-24(s0)
     8f0:	00178793          	addi	a5,a5,1
     8f4:	fef42423          	sw	a5,-24(s0)
     8f8:	fd442783          	lw	a5,-44(s0)
     8fc:	fff78713          	addi	a4,a5,-1
     900:	fce42a23          	sw	a4,-44(s0)
     904:	fc0796e3          	bnez	a5,8d0 <memmove+0x38>
     908:	0340006f          	j	93c <memmove+0xa4>
     90c:	fe842703          	lw	a4,-24(s0)
     910:	fd442783          	lw	a5,-44(s0)
     914:	00f70733          	add	a4,a4,a5
     918:	fec42683          	lw	a3,-20(s0)
     91c:	fd442783          	lw	a5,-44(s0)
     920:	00f687b3          	add	a5,a3,a5
     924:	00074703          	lbu	a4,0(a4)
     928:	00e78023          	sb	a4,0(a5)
     92c:	fd442783          	lw	a5,-44(s0)
     930:	fff78713          	addi	a4,a5,-1
     934:	fce42a23          	sw	a4,-44(s0)
     938:	fc079ae3          	bnez	a5,90c <memmove+0x74>
     93c:	fdc42783          	lw	a5,-36(s0)
     940:	00078513          	mv	a0,a5
     944:	02c12403          	lw	s0,44(sp)
     948:	03010113          	addi	sp,sp,48
     94c:	00008067          	ret

00000950 <memcpy>:
     950:	fd010113          	addi	sp,sp,-48
     954:	02812623          	sw	s0,44(sp)
     958:	03010413          	addi	s0,sp,48
     95c:	fca42e23          	sw	a0,-36(s0)
     960:	fcb42c23          	sw	a1,-40(s0)
     964:	fcc42a23          	sw	a2,-44(s0)
     968:	fdc42783          	lw	a5,-36(s0)
     96c:	fef42623          	sw	a5,-20(s0)
     970:	fd842783          	lw	a5,-40(s0)
     974:	fef42423          	sw	a5,-24(s0)
     978:	fec42783          	lw	a5,-20(s0)
     97c:	04078263          	beqz	a5,9c0 <memcpy+0x70>
     980:	fe842783          	lw	a5,-24(s0)
     984:	02078e63          	beqz	a5,9c0 <memcpy+0x70>
     988:	0300006f          	j	9b8 <memcpy+0x68>
     98c:	fe842703          	lw	a4,-24(s0)
     990:	00170793          	addi	a5,a4,1
     994:	fef42423          	sw	a5,-24(s0)
     998:	fec42783          	lw	a5,-20(s0)
     99c:	00178693          	addi	a3,a5,1
     9a0:	fed42623          	sw	a3,-20(s0)
     9a4:	00074703          	lbu	a4,0(a4)
     9a8:	00e78023          	sb	a4,0(a5)
     9ac:	fd442783          	lw	a5,-44(s0)
     9b0:	fff78793          	addi	a5,a5,-1
     9b4:	fcf42a23          	sw	a5,-44(s0)
     9b8:	fd442783          	lw	a5,-44(s0)
     9bc:	fc0798e3          	bnez	a5,98c <memcpy+0x3c>
     9c0:	fdc42783          	lw	a5,-36(s0)
     9c4:	00078513          	mv	a0,a5
     9c8:	02c12403          	lw	s0,44(sp)
     9cc:	03010113          	addi	sp,sp,48
     9d0:	00008067          	ret

000009d4 <memcmp>:
     9d4:	fd010113          	addi	sp,sp,-48
     9d8:	02812623          	sw	s0,44(sp)
     9dc:	03010413          	addi	s0,sp,48
     9e0:	fca42e23          	sw	a0,-36(s0)
     9e4:	fcb42c23          	sw	a1,-40(s0)
     9e8:	fcc42a23          	sw	a2,-44(s0)
     9ec:	fdc42783          	lw	a5,-36(s0)
     9f0:	fef42623          	sw	a5,-20(s0)
     9f4:	fd842783          	lw	a5,-40(s0)
     9f8:	fef42423          	sw	a5,-24(s0)
     9fc:	0540006f          	j	a50 <memcmp+0x7c>
     a00:	fec42783          	lw	a5,-20(s0)
     a04:	0007c703          	lbu	a4,0(a5)
     a08:	fe842783          	lw	a5,-24(s0)
     a0c:	0007c783          	lbu	a5,0(a5)
     a10:	02f70463          	beq	a4,a5,a38 <memcmp+0x64>
     a14:	fec42783          	lw	a5,-20(s0)
     a18:	0007c703          	lbu	a4,0(a5)
     a1c:	fe842783          	lw	a5,-24(s0)
     a20:	0007c783          	lbu	a5,0(a5)
     a24:	00e7f663          	bgeu	a5,a4,a30 <memcmp+0x5c>
     a28:	00100793          	li	a5,1
     a2c:	0380006f          	j	a64 <memcmp+0x90>
     a30:	fff00793          	li	a5,-1
     a34:	0300006f          	j	a64 <memcmp+0x90>
     a38:	fec42783          	lw	a5,-20(s0)
     a3c:	00178793          	addi	a5,a5,1
     a40:	fef42623          	sw	a5,-20(s0)
     a44:	fe842783          	lw	a5,-24(s0)
     a48:	00178793          	addi	a5,a5,1
     a4c:	fef42423          	sw	a5,-24(s0)
     a50:	fd442783          	lw	a5,-44(s0)
     a54:	fff78713          	addi	a4,a5,-1
     a58:	fce42a23          	sw	a4,-44(s0)
     a5c:	fa0792e3          	bnez	a5,a00 <memcmp+0x2c>
     a60:	00000793          	li	a5,0
     a64:	00078513          	mv	a0,a5
     a68:	02c12403          	lw	s0,44(sp)
     a6c:	03010113          	addi	sp,sp,48
     a70:	00008067          	ret

00000a74 <__bufputch>:
     a74:	fd010113          	addi	sp,sp,-48
     a78:	02812623          	sw	s0,44(sp)
     a7c:	03010413          	addi	s0,sp,48
     a80:	00050793          	mv	a5,a0
     a84:	fcf40fa3          	sb	a5,-33(s0)
     a88:	002007b7          	lui	a5,0x200
     a8c:	fef42623          	sw	a5,-20(s0)
     a90:	00102797          	auipc	a5,0x102
     a94:	e7c78793          	addi	a5,a5,-388 # 10290c <__vga_line>
     a98:	0007a783          	lw	a5,0(a5)
     a9c:	00779713          	slli	a4,a5,0x7
     aa0:	00102797          	auipc	a5,0x102
     aa4:	e7078793          	addi	a5,a5,-400 # 102910 <__vga_ch>
     aa8:	0007a783          	lw	a5,0(a5)
     aac:	00f707b3          	add	a5,a4,a5
     ab0:	00078713          	mv	a4,a5
     ab4:	fec42783          	lw	a5,-20(s0)
     ab8:	00e787b3          	add	a5,a5,a4
     abc:	fdf44703          	lbu	a4,-33(s0)
     ac0:	00e78023          	sb	a4,0(a5)
     ac4:	00102797          	auipc	a5,0x102
     ac8:	e4878793          	addi	a5,a5,-440 # 10290c <__vga_line>
     acc:	0007a703          	lw	a4,0(a5)
     ad0:	00102797          	auipc	a5,0x102
     ad4:	e4078793          	addi	a5,a5,-448 # 102910 <__vga_ch>
     ad8:	0007a683          	lw	a3,0(a5)
     adc:	00101617          	auipc	a2,0x101
     ae0:	dc060613          	addi	a2,a2,-576 # 10189c <backup_screen>
     ae4:	00070793          	mv	a5,a4
     ae8:	00379793          	slli	a5,a5,0x3
     aec:	00e787b3          	add	a5,a5,a4
     af0:	00279793          	slli	a5,a5,0x2
     af4:	40e787b3          	sub	a5,a5,a4
     af8:	00179793          	slli	a5,a5,0x1
     afc:	00f607b3          	add	a5,a2,a5
     b00:	00d787b3          	add	a5,a5,a3
     b04:	fdf44703          	lbu	a4,-33(s0)
     b08:	00e78023          	sb	a4,0(a5)
     b0c:	00102797          	auipc	a5,0x102
     b10:	e0478793          	addi	a5,a5,-508 # 102910 <__vga_ch>
     b14:	0007a783          	lw	a5,0(a5)
     b18:	00178713          	addi	a4,a5,1
     b1c:	00102797          	auipc	a5,0x102
     b20:	df478793          	addi	a5,a5,-524 # 102910 <__vga_ch>
     b24:	00e7a023          	sw	a4,0(a5)
     b28:	00102797          	auipc	a5,0x102
     b2c:	de878793          	addi	a5,a5,-536 # 102910 <__vga_ch>
     b30:	0007a703          	lw	a4,0(a5)
     b34:	04500793          	li	a5,69
     b38:	04e7dc63          	bge	a5,a4,b90 <__bufputch+0x11c>
     b3c:	00102797          	auipc	a5,0x102
     b40:	dd478793          	addi	a5,a5,-556 # 102910 <__vga_ch>
     b44:	0007a783          	lw	a5,0(a5)
     b48:	fff78713          	addi	a4,a5,-1
     b4c:	00102797          	auipc	a5,0x102
     b50:	dc478793          	addi	a5,a5,-572 # 102910 <__vga_ch>
     b54:	00e7a023          	sw	a4,0(a5)
     b58:	00102797          	auipc	a5,0x102
     b5c:	db478793          	addi	a5,a5,-588 # 10290c <__vga_line>
     b60:	0007a783          	lw	a5,0(a5)
     b64:	01c00713          	li	a4,28
     b68:	00f75463          	bge	a4,a5,b70 <__bufputch+0xfc>
     b6c:	01c00793          	li	a5,28
     b70:	00178713          	addi	a4,a5,1
     b74:	00102797          	auipc	a5,0x102
     b78:	d9878793          	addi	a5,a5,-616 # 10290c <__vga_line>
     b7c:	00e7a023          	sw	a4,0(a5)
     b80:	00102797          	auipc	a5,0x102
     b84:	d9078793          	addi	a5,a5,-624 # 102910 <__vga_ch>
     b88:	0007a023          	sw	zero,0(a5)
     b8c:	00000013          	nop
     b90:	00000013          	nop
     b94:	02c12403          	lw	s0,44(sp)
     b98:	03010113          	addi	sp,sp,48
     b9c:	00008067          	ret

00000ba0 <__refresh_screen>:
     ba0:	fe010113          	addi	sp,sp,-32
     ba4:	00112e23          	sw	ra,28(sp)
     ba8:	00812c23          	sw	s0,24(sp)
     bac:	02010413          	addi	s0,sp,32
     bb0:	00102797          	auipc	a5,0x102
     bb4:	d5c78793          	addi	a5,a5,-676 # 10290c <__vga_line>
     bb8:	0007a023          	sw	zero,0(a5)
     bbc:	00102797          	auipc	a5,0x102
     bc0:	d5478793          	addi	a5,a5,-684 # 102910 <__vga_ch>
     bc4:	0007a023          	sw	zero,0(a5)
     bc8:	fe042623          	sw	zero,-20(s0)
     bcc:	06c0006f          	j	c38 <__refresh_screen+0x98>
     bd0:	fe042423          	sw	zero,-24(s0)
     bd4:	04c0006f          	j	c20 <__refresh_screen+0x80>
     bd8:	00101697          	auipc	a3,0x101
     bdc:	50068693          	addi	a3,a3,1280 # 1020d8 <__backup_screen>
     be0:	fec42703          	lw	a4,-20(s0)
     be4:	00070793          	mv	a5,a4
     be8:	00379793          	slli	a5,a5,0x3
     bec:	00e787b3          	add	a5,a5,a4
     bf0:	00279793          	slli	a5,a5,0x2
     bf4:	40e787b3          	sub	a5,a5,a4
     bf8:	00179793          	slli	a5,a5,0x1
     bfc:	00f68733          	add	a4,a3,a5
     c00:	fe842783          	lw	a5,-24(s0)
     c04:	00f707b3          	add	a5,a4,a5
     c08:	0007c783          	lbu	a5,0(a5)
     c0c:	00078513          	mv	a0,a5
     c10:	e65ff0ef          	jal	ra,a74 <__bufputch>
     c14:	fe842783          	lw	a5,-24(s0)
     c18:	00178793          	addi	a5,a5,1
     c1c:	fef42423          	sw	a5,-24(s0)
     c20:	fe842703          	lw	a4,-24(s0)
     c24:	04500793          	li	a5,69
     c28:	fae7d8e3          	bge	a5,a4,bd8 <__refresh_screen+0x38>
     c2c:	fec42783          	lw	a5,-20(s0)
     c30:	00178793          	addi	a5,a5,1
     c34:	fef42623          	sw	a5,-20(s0)
     c38:	fec42703          	lw	a4,-20(s0)
     c3c:	01d00793          	li	a5,29
     c40:	f8e7d8e3          	bge	a5,a4,bd0 <__refresh_screen+0x30>
     c44:	00102797          	auipc	a5,0x102
     c48:	cc878793          	addi	a5,a5,-824 # 10290c <__vga_line>
     c4c:	0007a023          	sw	zero,0(a5)
     c50:	00102797          	auipc	a5,0x102
     c54:	cc078793          	addi	a5,a5,-832 # 102910 <__vga_ch>
     c58:	0007a023          	sw	zero,0(a5)
     c5c:	00000013          	nop
     c60:	01c12083          	lw	ra,28(sp)
     c64:	01812403          	lw	s0,24(sp)
     c68:	02010113          	addi	sp,sp,32
     c6c:	00008067          	ret

00000c70 <logo_step>:
     c70:	fe010113          	addi	sp,sp,-32
     c74:	00112e23          	sw	ra,28(sp)
     c78:	00812c23          	sw	s0,24(sp)
     c7c:	02010413          	addi	s0,sp,32
     c80:	00102797          	auipc	a5,0x102
     c84:	c9478793          	addi	a5,a5,-876 # 102914 <logo_x>
     c88:	0007a783          	lw	a5,0(a5)
     c8c:	00f04a63          	bgtz	a5,ca0 <logo_step+0x30>
     c90:	00100797          	auipc	a5,0x100
     c94:	ab878793          	addi	a5,a5,-1352 # 100748 <logo_xdir>
     c98:	00100713          	li	a4,1
     c9c:	00e7a023          	sw	a4,0(a5)
     ca0:	00102797          	auipc	a5,0x102
     ca4:	c7478793          	addi	a5,a5,-908 # 102914 <logo_x>
     ca8:	0007a703          	lw	a4,0(a5)
     cac:	01300793          	li	a5,19
     cb0:	00e7da63          	bge	a5,a4,cc4 <logo_step+0x54>
     cb4:	00100797          	auipc	a5,0x100
     cb8:	a9478793          	addi	a5,a5,-1388 # 100748 <logo_xdir>
     cbc:	fff00713          	li	a4,-1
     cc0:	00e7a023          	sw	a4,0(a5)
     cc4:	00102797          	auipc	a5,0x102
     cc8:	c5478793          	addi	a5,a5,-940 # 102918 <logo_y>
     ccc:	0007a783          	lw	a5,0(a5)
     cd0:	00f04a63          	bgtz	a5,ce4 <logo_step+0x74>
     cd4:	00100797          	auipc	a5,0x100
     cd8:	a7878793          	addi	a5,a5,-1416 # 10074c <logo_ydir>
     cdc:	00100713          	li	a4,1
     ce0:	00e7a023          	sw	a4,0(a5)
     ce4:	00102797          	auipc	a5,0x102
     ce8:	c3478793          	addi	a5,a5,-972 # 102918 <logo_y>
     cec:	0007a703          	lw	a4,0(a5)
     cf0:	01100793          	li	a5,17
     cf4:	00e7da63          	bge	a5,a4,d08 <logo_step+0x98>
     cf8:	00100797          	auipc	a5,0x100
     cfc:	a5478793          	addi	a5,a5,-1452 # 10074c <logo_ydir>
     d00:	fff00713          	li	a4,-1
     d04:	00e7a023          	sw	a4,0(a5)
     d08:	00102797          	auipc	a5,0x102
     d0c:	c0c78793          	addi	a5,a5,-1012 # 102914 <logo_x>
     d10:	0007a703          	lw	a4,0(a5)
     d14:	00100797          	auipc	a5,0x100
     d18:	a3478793          	addi	a5,a5,-1484 # 100748 <logo_xdir>
     d1c:	0007a783          	lw	a5,0(a5)
     d20:	00f70733          	add	a4,a4,a5
     d24:	00102797          	auipc	a5,0x102
     d28:	bf078793          	addi	a5,a5,-1040 # 102914 <logo_x>
     d2c:	00e7a023          	sw	a4,0(a5)
     d30:	00102797          	auipc	a5,0x102
     d34:	be878793          	addi	a5,a5,-1048 # 102918 <logo_y>
     d38:	0007a703          	lw	a4,0(a5)
     d3c:	00100797          	auipc	a5,0x100
     d40:	a1078793          	addi	a5,a5,-1520 # 10074c <logo_ydir>
     d44:	0007a783          	lw	a5,0(a5)
     d48:	00f70733          	add	a4,a4,a5
     d4c:	00102797          	auipc	a5,0x102
     d50:	bcc78793          	addi	a5,a5,-1076 # 102918 <logo_y>
     d54:	00e7a023          	sw	a4,0(a5)
     d58:	fe042623          	sw	zero,-20(s0)
     d5c:	0680006f          	j	dc4 <logo_step+0x154>
     d60:	fe042423          	sw	zero,-24(s0)
     d64:	0480006f          	j	dac <logo_step+0x13c>
     d68:	00101697          	auipc	a3,0x101
     d6c:	37068693          	addi	a3,a3,880 # 1020d8 <__backup_screen>
     d70:	fec42703          	lw	a4,-20(s0)
     d74:	00070793          	mv	a5,a4
     d78:	00379793          	slli	a5,a5,0x3
     d7c:	00e787b3          	add	a5,a5,a4
     d80:	00279793          	slli	a5,a5,0x2
     d84:	40e787b3          	sub	a5,a5,a4
     d88:	00179793          	slli	a5,a5,0x1
     d8c:	00f68733          	add	a4,a3,a5
     d90:	fe842783          	lw	a5,-24(s0)
     d94:	00f707b3          	add	a5,a4,a5
     d98:	02000713          	li	a4,32
     d9c:	00e78023          	sb	a4,0(a5)
     da0:	fe842783          	lw	a5,-24(s0)
     da4:	00178793          	addi	a5,a5,1
     da8:	fef42423          	sw	a5,-24(s0)
     dac:	fe842703          	lw	a4,-24(s0)
     db0:	04500793          	li	a5,69
     db4:	fae7dae3          	bge	a5,a4,d68 <logo_step+0xf8>
     db8:	fec42783          	lw	a5,-20(s0)
     dbc:	00178793          	addi	a5,a5,1
     dc0:	fef42623          	sw	a5,-20(s0)
     dc4:	fec42703          	lw	a4,-20(s0)
     dc8:	01d00793          	li	a5,29
     dcc:	f8e7dae3          	bge	a5,a4,d60 <logo_step+0xf0>
     dd0:	fe042223          	sw	zero,-28(s0)
     dd4:	0b40006f          	j	e88 <logo_step+0x218>
     dd8:	fe042023          	sw	zero,-32(s0)
     ddc:	0940006f          	j	e70 <logo_step+0x200>
     de0:	00102797          	auipc	a5,0x102
     de4:	b3878793          	addi	a5,a5,-1224 # 102918 <logo_y>
     de8:	0007a703          	lw	a4,0(a5)
     dec:	fe442783          	lw	a5,-28(s0)
     df0:	00f70733          	add	a4,a4,a5
     df4:	00102797          	auipc	a5,0x102
     df8:	b2078793          	addi	a5,a5,-1248 # 102914 <logo_x>
     dfc:	0007a683          	lw	a3,0(a5)
     e00:	fe042783          	lw	a5,-32(s0)
     e04:	00f68633          	add	a2,a3,a5
     e08:	000ff597          	auipc	a1,0xff
     e0c:	63458593          	addi	a1,a1,1588 # 10043c <logo>
     e10:	fe442683          	lw	a3,-28(s0)
     e14:	00068793          	mv	a5,a3
     e18:	00179793          	slli	a5,a5,0x1
     e1c:	00d787b3          	add	a5,a5,a3
     e20:	00479793          	slli	a5,a5,0x4
     e24:	00d787b3          	add	a5,a5,a3
     e28:	00f586b3          	add	a3,a1,a5
     e2c:	fe042783          	lw	a5,-32(s0)
     e30:	00f687b3          	add	a5,a3,a5
     e34:	0007c683          	lbu	a3,0(a5)
     e38:	00101597          	auipc	a1,0x101
     e3c:	2a058593          	addi	a1,a1,672 # 1020d8 <__backup_screen>
     e40:	00070793          	mv	a5,a4
     e44:	00379793          	slli	a5,a5,0x3
     e48:	00e787b3          	add	a5,a5,a4
     e4c:	00279793          	slli	a5,a5,0x2
     e50:	40e787b3          	sub	a5,a5,a4
     e54:	00179793          	slli	a5,a5,0x1
     e58:	00f587b3          	add	a5,a1,a5
     e5c:	00c787b3          	add	a5,a5,a2
     e60:	00d78023          	sb	a3,0(a5)
     e64:	fe042783          	lw	a5,-32(s0)
     e68:	00178793          	addi	a5,a5,1
     e6c:	fef42023          	sw	a5,-32(s0)
     e70:	fe042703          	lw	a4,-32(s0)
     e74:	03000793          	li	a5,48
     e78:	f6e7d4e3          	bge	a5,a4,de0 <logo_step+0x170>
     e7c:	fe442783          	lw	a5,-28(s0)
     e80:	00178793          	addi	a5,a5,1
     e84:	fef42223          	sw	a5,-28(s0)
     e88:	fe442703          	lw	a4,-28(s0)
     e8c:	00a00793          	li	a5,10
     e90:	f4e7d4e3          	bge	a5,a4,dd8 <logo_step+0x168>
     e94:	d0dff0ef          	jal	ra,ba0 <__refresh_screen>
     e98:	00000013          	nop
     e9c:	01c12083          	lw	ra,28(sp)
     ea0:	01812403          	lw	s0,24(sp)
     ea4:	02010113          	addi	sp,sp,32
     ea8:	00008067          	ret

00000eac <cmd_sleep>:
     eac:	fd010113          	addi	sp,sp,-48
     eb0:	02112623          	sw	ra,44(sp)
     eb4:	02812423          	sw	s0,40(sp)
     eb8:	03010413          	addi	s0,sp,48
     ebc:	fca42e23          	sw	a0,-36(s0)
     ec0:	fe0405a3          	sb	zero,-21(s0)
     ec4:	fe042623          	sw	zero,-20(s0)
     ec8:	728010ef          	jal	ra,25f0 <get_keyboard>
     ecc:	00050793          	mv	a5,a0
     ed0:	00078863          	beqz	a5,ee0 <cmd_sleep+0x34>
     ed4:	0d5010ef          	jal	ra,27a8 <vga_init>
     ed8:	00000793          	li	a5,0
     edc:	04c0006f          	j	f28 <cmd_sleep+0x7c>
     ee0:	004007b7          	lui	a5,0x400
     ee4:	0007a783          	lw	a5,0(a5) # 400000 <_end+0x2fa400>
     ee8:	02800593          	li	a1,40
     eec:	00078513          	mv	a0,a5
     ef0:	a98ff0ef          	jal	ra,188 <__udivsi3>
     ef4:	00050793          	mv	a5,a0
     ef8:	00078713          	mv	a4,a5
     efc:	fec42783          	lw	a5,-20(s0)
     f00:	fce7f4e3          	bgeu	a5,a4,ec8 <cmd_sleep+0x1c>
     f04:	004007b7          	lui	a5,0x400
     f08:	0007a783          	lw	a5,0(a5) # 400000 <_end+0x2fa400>
     f0c:	02800593          	li	a1,40
     f10:	00078513          	mv	a0,a5
     f14:	a74ff0ef          	jal	ra,188 <__udivsi3>
     f18:	00050793          	mv	a5,a0
     f1c:	fef42623          	sw	a5,-20(s0)
     f20:	d51ff0ef          	jal	ra,c70 <logo_step>
     f24:	fa5ff06f          	j	ec8 <cmd_sleep+0x1c>
     f28:	00078513          	mv	a0,a5
     f2c:	02c12083          	lw	ra,44(sp)
     f30:	02812403          	lw	s0,40(sp)
     f34:	03010113          	addi	sp,sp,48
     f38:	00008067          	ret

00000f3c <draw_graphic>:
     f3c:	fd010113          	addi	sp,sp,-48
     f40:	02112623          	sw	ra,44(sp)
     f44:	02812423          	sw	s0,40(sp)
     f48:	03010413          	addi	s0,sp,48
     f4c:	00f00793          	li	a5,15
     f50:	fcf42e23          	sw	a5,-36(s0)
     f54:	00100793          	li	a5,1
     f58:	fcf42c23          	sw	a5,-40(s0)
     f5c:	fe042623          	sw	zero,-20(s0)
     f60:	0680006f          	j	fc8 <draw_graphic+0x8c>
     f64:	fe042423          	sw	zero,-24(s0)
     f68:	0480006f          	j	fb0 <draw_graphic+0x74>
     f6c:	00101697          	auipc	a3,0x101
     f70:	16c68693          	addi	a3,a3,364 # 1020d8 <__backup_screen>
     f74:	fec42703          	lw	a4,-20(s0)
     f78:	00070793          	mv	a5,a4
     f7c:	00379793          	slli	a5,a5,0x3
     f80:	00e787b3          	add	a5,a5,a4
     f84:	00279793          	slli	a5,a5,0x2
     f88:	40e787b3          	sub	a5,a5,a4
     f8c:	00179793          	slli	a5,a5,0x1
     f90:	00f68733          	add	a4,a3,a5
     f94:	fe842783          	lw	a5,-24(s0)
     f98:	00f707b3          	add	a5,a4,a5
     f9c:	02e00713          	li	a4,46
     fa0:	00e78023          	sb	a4,0(a5)
     fa4:	fe842783          	lw	a5,-24(s0)
     fa8:	00178793          	addi	a5,a5,1
     fac:	fef42423          	sw	a5,-24(s0)
     fb0:	fe842703          	lw	a4,-24(s0)
     fb4:	04500793          	li	a5,69
     fb8:	fae7dae3          	bge	a5,a4,f6c <draw_graphic+0x30>
     fbc:	fec42783          	lw	a5,-20(s0)
     fc0:	00178793          	addi	a5,a5,1
     fc4:	fef42623          	sw	a5,-20(s0)
     fc8:	fec42703          	lw	a4,-20(s0)
     fcc:	01d00793          	li	a5,29
     fd0:	f8e7dae3          	bge	a5,a4,f64 <draw_graphic+0x28>
     fd4:	fe042223          	sw	zero,-28(s0)
     fd8:	0f00006f          	j	10c8 <draw_graphic+0x18c>
     fdc:	fe042023          	sw	zero,-32(s0)
     fe0:	0d00006f          	j	10b0 <draw_graphic+0x174>
     fe4:	00102697          	auipc	a3,0x102
     fe8:	95068693          	addi	a3,a3,-1712 # 102934 <map>
     fec:	fe442703          	lw	a4,-28(s0)
     ff0:	00070793          	mv	a5,a4
     ff4:	00279793          	slli	a5,a5,0x2
     ff8:	00e787b3          	add	a5,a5,a4
     ffc:	00379793          	slli	a5,a5,0x3
    1000:	fe042703          	lw	a4,-32(s0)
    1004:	00e787b3          	add	a5,a5,a4
    1008:	00279793          	slli	a5,a5,0x2
    100c:	00f687b3          	add	a5,a3,a5
    1010:	0007a783          	lw	a5,0(a5)
    1014:	0407c463          	bltz	a5,105c <draw_graphic+0x120>
    1018:	00102697          	auipc	a3,0x102
    101c:	91c68693          	addi	a3,a3,-1764 # 102934 <map>
    1020:	fe442703          	lw	a4,-28(s0)
    1024:	00070793          	mv	a5,a4
    1028:	00279793          	slli	a5,a5,0x2
    102c:	00e787b3          	add	a5,a5,a4
    1030:	00379793          	slli	a5,a5,0x3
    1034:	fe042703          	lw	a4,-32(s0)
    1038:	00e787b3          	add	a5,a5,a4
    103c:	00279793          	slli	a5,a5,0x2
    1040:	00f687b3          	add	a5,a3,a5
    1044:	0007a783          	lw	a5,0(a5)
    1048:	00f05663          	blez	a5,1054 <draw_graphic+0x118>
    104c:	03000713          	li	a4,48
    1050:	0100006f          	j	1060 <draw_graphic+0x124>
    1054:	02000713          	li	a4,32
    1058:	0080006f          	j	1060 <draw_graphic+0x124>
    105c:	02300713          	li	a4,35
    1060:	fe442683          	lw	a3,-28(s0)
    1064:	fd842783          	lw	a5,-40(s0)
    1068:	00f686b3          	add	a3,a3,a5
    106c:	fe042603          	lw	a2,-32(s0)
    1070:	fdc42783          	lw	a5,-36(s0)
    1074:	00f60633          	add	a2,a2,a5
    1078:	00101597          	auipc	a1,0x101
    107c:	06058593          	addi	a1,a1,96 # 1020d8 <__backup_screen>
    1080:	00068793          	mv	a5,a3
    1084:	00379793          	slli	a5,a5,0x3
    1088:	00d787b3          	add	a5,a5,a3
    108c:	00279793          	slli	a5,a5,0x2
    1090:	40d787b3          	sub	a5,a5,a3
    1094:	00179793          	slli	a5,a5,0x1
    1098:	00f587b3          	add	a5,a1,a5
    109c:	00c787b3          	add	a5,a5,a2
    10a0:	00e78023          	sb	a4,0(a5)
    10a4:	fe042783          	lw	a5,-32(s0)
    10a8:	00178793          	addi	a5,a5,1
    10ac:	fef42023          	sw	a5,-32(s0)
    10b0:	fe042703          	lw	a4,-32(s0)
    10b4:	02700793          	li	a5,39
    10b8:	f2e7d6e3          	bge	a5,a4,fe4 <draw_graphic+0xa8>
    10bc:	fe442783          	lw	a5,-28(s0)
    10c0:	00178793          	addi	a5,a5,1
    10c4:	fef42223          	sw	a5,-28(s0)
    10c8:	fe442703          	lw	a4,-28(s0)
    10cc:	01b00793          	li	a5,27
    10d0:	f0e7d6e3          	bge	a5,a4,fdc <draw_graphic+0xa0>
    10d4:	00102797          	auipc	a5,0x102
    10d8:	85c78793          	addi	a5,a5,-1956 # 102930 <food_y>
    10dc:	0007a703          	lw	a4,0(a5)
    10e0:	fd842783          	lw	a5,-40(s0)
    10e4:	00f70733          	add	a4,a4,a5
    10e8:	00102797          	auipc	a5,0x102
    10ec:	84478793          	addi	a5,a5,-1980 # 10292c <food_x>
    10f0:	0007a683          	lw	a3,0(a5)
    10f4:	fdc42783          	lw	a5,-36(s0)
    10f8:	00f686b3          	add	a3,a3,a5
    10fc:	00101617          	auipc	a2,0x101
    1100:	fdc60613          	addi	a2,a2,-36 # 1020d8 <__backup_screen>
    1104:	00070793          	mv	a5,a4
    1108:	00379793          	slli	a5,a5,0x3
    110c:	00e787b3          	add	a5,a5,a4
    1110:	00279793          	slli	a5,a5,0x2
    1114:	40e787b3          	sub	a5,a5,a4
    1118:	00179793          	slli	a5,a5,0x1
    111c:	00f607b3          	add	a5,a2,a5
    1120:	00d787b3          	add	a5,a5,a3
    1124:	02a00713          	li	a4,42
    1128:	00e78023          	sb	a4,0(a5)
    112c:	a75ff0ef          	jal	ra,ba0 <__refresh_screen>
    1130:	00000013          	nop
    1134:	02c12083          	lw	ra,44(sp)
    1138:	02812403          	lw	s0,40(sp)
    113c:	03010113          	addi	sp,sp,48
    1140:	00008067          	ret

00001144 <new_food>:
    1144:	ff010113          	addi	sp,sp,-16
    1148:	00112623          	sw	ra,12(sp)
    114c:	00812423          	sw	s0,8(sp)
    1150:	01010413          	addi	s0,sp,16
    1154:	00101797          	auipc	a5,0x101
    1158:	7d878793          	addi	a5,a5,2008 # 10292c <food_x>
    115c:	0007a023          	sw	zero,0(a5)
    1160:	00101797          	auipc	a5,0x101
    1164:	7d078793          	addi	a5,a5,2000 # 102930 <food_y>
    1168:	0007a023          	sw	zero,0(a5)
    116c:	05c0006f          	j	11c8 <new_food+0x84>
    1170:	8d4ff0ef          	jal	ra,244 <rand>
    1174:	00050793          	mv	a5,a0
    1178:	02600593          	li	a1,38
    117c:	00078513          	mv	a0,a5
    1180:	f4dfe0ef          	jal	ra,cc <__umodsi3>
    1184:	00050793          	mv	a5,a0
    1188:	00178793          	addi	a5,a5,1
    118c:	00078713          	mv	a4,a5
    1190:	00101797          	auipc	a5,0x101
    1194:	79c78793          	addi	a5,a5,1948 # 10292c <food_x>
    1198:	00e7a023          	sw	a4,0(a5)
    119c:	8a8ff0ef          	jal	ra,244 <rand>
    11a0:	00050793          	mv	a5,a0
    11a4:	01a00593          	li	a1,26
    11a8:	00078513          	mv	a0,a5
    11ac:	f21fe0ef          	jal	ra,cc <__umodsi3>
    11b0:	00050793          	mv	a5,a0
    11b4:	00178793          	addi	a5,a5,1
    11b8:	00078713          	mv	a4,a5
    11bc:	00101797          	auipc	a5,0x101
    11c0:	77478793          	addi	a5,a5,1908 # 102930 <food_y>
    11c4:	00e7a023          	sw	a4,0(a5)
    11c8:	00101797          	auipc	a5,0x101
    11cc:	76878793          	addi	a5,a5,1896 # 102930 <food_y>
    11d0:	0007a703          	lw	a4,0(a5)
    11d4:	00101797          	auipc	a5,0x101
    11d8:	75878793          	addi	a5,a5,1880 # 10292c <food_x>
    11dc:	0007a603          	lw	a2,0(a5)
    11e0:	00101697          	auipc	a3,0x101
    11e4:	75468693          	addi	a3,a3,1876 # 102934 <map>
    11e8:	00070793          	mv	a5,a4
    11ec:	00279793          	slli	a5,a5,0x2
    11f0:	00e787b3          	add	a5,a5,a4
    11f4:	00379793          	slli	a5,a5,0x3
    11f8:	00c787b3          	add	a5,a5,a2
    11fc:	00279793          	slli	a5,a5,0x2
    1200:	00f687b3          	add	a5,a3,a5
    1204:	0007a783          	lw	a5,0(a5)
    1208:	f60794e3          	bnez	a5,1170 <new_food+0x2c>
    120c:	00000013          	nop
    1210:	00000013          	nop
    1214:	00c12083          	lw	ra,12(sp)
    1218:	00812403          	lw	s0,8(sp)
    121c:	01010113          	addi	sp,sp,16
    1220:	00008067          	ret

00001224 <init_game>:
    1224:	fe010113          	addi	sp,sp,-32
    1228:	00112e23          	sw	ra,28(sp)
    122c:	00812c23          	sw	s0,24(sp)
    1230:	02010413          	addi	s0,sp,32
    1234:	fe042623          	sw	zero,-20(s0)
    1238:	0940006f          	j	12cc <init_game+0xa8>
    123c:	fe042423          	sw	zero,-24(s0)
    1240:	0740006f          	j	12b4 <init_game+0x90>
    1244:	fec42783          	lw	a5,-20(s0)
    1248:	02078263          	beqz	a5,126c <init_game+0x48>
    124c:	fec42703          	lw	a4,-20(s0)
    1250:	01b00793          	li	a5,27
    1254:	00f70c63          	beq	a4,a5,126c <init_game+0x48>
    1258:	fe842783          	lw	a5,-24(s0)
    125c:	00078863          	beqz	a5,126c <init_game+0x48>
    1260:	fe842703          	lw	a4,-24(s0)
    1264:	02700793          	li	a5,39
    1268:	00f71663          	bne	a4,a5,1274 <init_game+0x50>
    126c:	fff00713          	li	a4,-1
    1270:	0080006f          	j	1278 <init_game+0x54>
    1274:	00000713          	li	a4,0
    1278:	00101617          	auipc	a2,0x101
    127c:	6bc60613          	addi	a2,a2,1724 # 102934 <map>
    1280:	fec42683          	lw	a3,-20(s0)
    1284:	00068793          	mv	a5,a3
    1288:	00279793          	slli	a5,a5,0x2
    128c:	00d787b3          	add	a5,a5,a3
    1290:	00379793          	slli	a5,a5,0x3
    1294:	fe842683          	lw	a3,-24(s0)
    1298:	00d787b3          	add	a5,a5,a3
    129c:	00279793          	slli	a5,a5,0x2
    12a0:	00f607b3          	add	a5,a2,a5
    12a4:	00e7a023          	sw	a4,0(a5)
    12a8:	fe842783          	lw	a5,-24(s0)
    12ac:	00178793          	addi	a5,a5,1
    12b0:	fef42423          	sw	a5,-24(s0)
    12b4:	fe842703          	lw	a4,-24(s0)
    12b8:	02700793          	li	a5,39
    12bc:	f8e7d4e3          	bge	a5,a4,1244 <init_game+0x20>
    12c0:	fec42783          	lw	a5,-20(s0)
    12c4:	00178793          	addi	a5,a5,1
    12c8:	fef42623          	sw	a5,-20(s0)
    12cc:	fec42703          	lw	a4,-20(s0)
    12d0:	01b00793          	li	a5,27
    12d4:	f6e7d4e3          	bge	a5,a4,123c <init_game+0x18>
    12d8:	00101797          	auipc	a5,0x101
    12dc:	64878793          	addi	a5,a5,1608 # 102920 <snake_x>
    12e0:	01400713          	li	a4,20
    12e4:	00e7a023          	sw	a4,0(a5)
    12e8:	00101797          	auipc	a5,0x101
    12ec:	63c78793          	addi	a5,a5,1596 # 102924 <snake_y>
    12f0:	00e00713          	li	a4,14
    12f4:	00e7a023          	sw	a4,0(a5)
    12f8:	00101797          	auipc	a5,0x101
    12fc:	63078793          	addi	a5,a5,1584 # 102928 <snake_len>
    1300:	00300713          	li	a4,3
    1304:	00e7a023          	sw	a4,0(a5)
    1308:	00101797          	auipc	a5,0x101
    130c:	61478793          	addi	a5,a5,1556 # 10291c <snake_dir>
    1310:	00300713          	li	a4,3
    1314:	00e7a023          	sw	a4,0(a5)
    1318:	00102797          	auipc	a5,0x102
    131c:	79c78793          	addi	a5,a5,1948 # 103ab4 <ignore_next>
    1320:	0007a023          	sw	zero,0(a5)
    1324:	00101797          	auipc	a5,0x101
    1328:	60078793          	addi	a5,a5,1536 # 102924 <snake_y>
    132c:	0007a703          	lw	a4,0(a5)
    1330:	00101797          	auipc	a5,0x101
    1334:	5f078793          	addi	a5,a5,1520 # 102920 <snake_x>
    1338:	0007a583          	lw	a1,0(a5)
    133c:	00101797          	auipc	a5,0x101
    1340:	5ec78793          	addi	a5,a5,1516 # 102928 <snake_len>
    1344:	0007a683          	lw	a3,0(a5)
    1348:	00101617          	auipc	a2,0x101
    134c:	5ec60613          	addi	a2,a2,1516 # 102934 <map>
    1350:	00070793          	mv	a5,a4
    1354:	00279793          	slli	a5,a5,0x2
    1358:	00e787b3          	add	a5,a5,a4
    135c:	00379793          	slli	a5,a5,0x3
    1360:	00b787b3          	add	a5,a5,a1
    1364:	00279793          	slli	a5,a5,0x2
    1368:	00f607b3          	add	a5,a2,a5
    136c:	00d7a023          	sw	a3,0(a5)
    1370:	00101797          	auipc	a5,0x101
    1374:	5b878793          	addi	a5,a5,1464 # 102928 <snake_len>
    1378:	0007a783          	lw	a5,0(a5)
    137c:	00101717          	auipc	a4,0x101
    1380:	5a870713          	addi	a4,a4,1448 # 102924 <snake_y>
    1384:	00072703          	lw	a4,0(a4)
    1388:	00101697          	auipc	a3,0x101
    138c:	59868693          	addi	a3,a3,1432 # 102920 <snake_x>
    1390:	0006a683          	lw	a3,0(a3)
    1394:	fff68593          	addi	a1,a3,-1
    1398:	fff78693          	addi	a3,a5,-1
    139c:	00101617          	auipc	a2,0x101
    13a0:	59860613          	addi	a2,a2,1432 # 102934 <map>
    13a4:	00070793          	mv	a5,a4
    13a8:	00279793          	slli	a5,a5,0x2
    13ac:	00e787b3          	add	a5,a5,a4
    13b0:	00379793          	slli	a5,a5,0x3
    13b4:	00b787b3          	add	a5,a5,a1
    13b8:	00279793          	slli	a5,a5,0x2
    13bc:	00f607b3          	add	a5,a2,a5
    13c0:	00d7a023          	sw	a3,0(a5)
    13c4:	d81ff0ef          	jal	ra,1144 <new_food>
    13c8:	00000013          	nop
    13cc:	01c12083          	lw	ra,28(sp)
    13d0:	01812403          	lw	s0,24(sp)
    13d4:	02010113          	addi	sp,sp,32
    13d8:	00008067          	ret

000013dc <game_step>:
    13dc:	fe010113          	addi	sp,sp,-32
    13e0:	00112e23          	sw	ra,28(sp)
    13e4:	00812c23          	sw	s0,24(sp)
    13e8:	02010413          	addi	s0,sp,32
    13ec:	00102797          	auipc	a5,0x102
    13f0:	6c878793          	addi	a5,a5,1736 # 103ab4 <ignore_next>
    13f4:	0007a783          	lw	a5,0(a5)
    13f8:	0e079063          	bnez	a5,14d8 <game_step+0xfc>
    13fc:	fe042623          	sw	zero,-20(s0)
    1400:	0c80006f          	j	14c8 <game_step+0xec>
    1404:	fe042423          	sw	zero,-24(s0)
    1408:	0a80006f          	j	14b0 <game_step+0xd4>
    140c:	00101697          	auipc	a3,0x101
    1410:	52868693          	addi	a3,a3,1320 # 102934 <map>
    1414:	fec42703          	lw	a4,-20(s0)
    1418:	00070793          	mv	a5,a4
    141c:	00279793          	slli	a5,a5,0x2
    1420:	00e787b3          	add	a5,a5,a4
    1424:	00379793          	slli	a5,a5,0x3
    1428:	fe842703          	lw	a4,-24(s0)
    142c:	00e787b3          	add	a5,a5,a4
    1430:	00279793          	slli	a5,a5,0x2
    1434:	00f687b3          	add	a5,a3,a5
    1438:	0007a783          	lw	a5,0(a5)
    143c:	06f05463          	blez	a5,14a4 <game_step+0xc8>
    1440:	00101697          	auipc	a3,0x101
    1444:	4f468693          	addi	a3,a3,1268 # 102934 <map>
    1448:	fec42703          	lw	a4,-20(s0)
    144c:	00070793          	mv	a5,a4
    1450:	00279793          	slli	a5,a5,0x2
    1454:	00e787b3          	add	a5,a5,a4
    1458:	00379793          	slli	a5,a5,0x3
    145c:	fe842703          	lw	a4,-24(s0)
    1460:	00e787b3          	add	a5,a5,a4
    1464:	00279793          	slli	a5,a5,0x2
    1468:	00f687b3          	add	a5,a3,a5
    146c:	0007a783          	lw	a5,0(a5)
    1470:	fff78693          	addi	a3,a5,-1
    1474:	00101617          	auipc	a2,0x101
    1478:	4c060613          	addi	a2,a2,1216 # 102934 <map>
    147c:	fec42703          	lw	a4,-20(s0)
    1480:	00070793          	mv	a5,a4
    1484:	00279793          	slli	a5,a5,0x2
    1488:	00e787b3          	add	a5,a5,a4
    148c:	00379793          	slli	a5,a5,0x3
    1490:	fe842703          	lw	a4,-24(s0)
    1494:	00e787b3          	add	a5,a5,a4
    1498:	00279793          	slli	a5,a5,0x2
    149c:	00f607b3          	add	a5,a2,a5
    14a0:	00d7a023          	sw	a3,0(a5)
    14a4:	fe842783          	lw	a5,-24(s0)
    14a8:	00178793          	addi	a5,a5,1
    14ac:	fef42423          	sw	a5,-24(s0)
    14b0:	fe842703          	lw	a4,-24(s0)
    14b4:	02700793          	li	a5,39
    14b8:	f4e7dae3          	bge	a5,a4,140c <game_step+0x30>
    14bc:	fec42783          	lw	a5,-20(s0)
    14c0:	00178793          	addi	a5,a5,1
    14c4:	fef42623          	sw	a5,-20(s0)
    14c8:	fec42703          	lw	a4,-20(s0)
    14cc:	01b00793          	li	a5,27
    14d0:	f2e7dae3          	bge	a5,a4,1404 <game_step+0x28>
    14d4:	0100006f          	j	14e4 <game_step+0x108>
    14d8:	00102797          	auipc	a5,0x102
    14dc:	5dc78793          	addi	a5,a5,1500 # 103ab4 <ignore_next>
    14e0:	0007a023          	sw	zero,0(a5)
    14e4:	00101797          	auipc	a5,0x101
    14e8:	43878793          	addi	a5,a5,1080 # 10291c <snake_dir>
    14ec:	0007a783          	lw	a5,0(a5)
    14f0:	000ff717          	auipc	a4,0xff
    14f4:	17c70713          	addi	a4,a4,380 # 10066c <dx>
    14f8:	00279793          	slli	a5,a5,0x2
    14fc:	00f707b3          	add	a5,a4,a5
    1500:	0007a703          	lw	a4,0(a5)
    1504:	00101797          	auipc	a5,0x101
    1508:	41c78793          	addi	a5,a5,1052 # 102920 <snake_x>
    150c:	0007a783          	lw	a5,0(a5)
    1510:	00f70733          	add	a4,a4,a5
    1514:	00101797          	auipc	a5,0x101
    1518:	40c78793          	addi	a5,a5,1036 # 102920 <snake_x>
    151c:	00e7a023          	sw	a4,0(a5)
    1520:	00101797          	auipc	a5,0x101
    1524:	3fc78793          	addi	a5,a5,1020 # 10291c <snake_dir>
    1528:	0007a783          	lw	a5,0(a5)
    152c:	000ff717          	auipc	a4,0xff
    1530:	15070713          	addi	a4,a4,336 # 10067c <dy>
    1534:	00279793          	slli	a5,a5,0x2
    1538:	00f707b3          	add	a5,a4,a5
    153c:	0007a703          	lw	a4,0(a5)
    1540:	00101797          	auipc	a5,0x101
    1544:	3e478793          	addi	a5,a5,996 # 102924 <snake_y>
    1548:	0007a783          	lw	a5,0(a5)
    154c:	00f70733          	add	a4,a4,a5
    1550:	00101797          	auipc	a5,0x101
    1554:	3d478793          	addi	a5,a5,980 # 102924 <snake_y>
    1558:	00e7a023          	sw	a4,0(a5)
    155c:	00101797          	auipc	a5,0x101
    1560:	3c878793          	addi	a5,a5,968 # 102924 <snake_y>
    1564:	0007a703          	lw	a4,0(a5)
    1568:	00101797          	auipc	a5,0x101
    156c:	3b878793          	addi	a5,a5,952 # 102920 <snake_x>
    1570:	0007a603          	lw	a2,0(a5)
    1574:	00101697          	auipc	a3,0x101
    1578:	3c068693          	addi	a3,a3,960 # 102934 <map>
    157c:	00070793          	mv	a5,a4
    1580:	00279793          	slli	a5,a5,0x2
    1584:	00e787b3          	add	a5,a5,a4
    1588:	00379793          	slli	a5,a5,0x3
    158c:	00c787b3          	add	a5,a5,a2
    1590:	00279793          	slli	a5,a5,0x2
    1594:	00f687b3          	add	a5,a3,a5
    1598:	0007a783          	lw	a5,0(a5)
    159c:	00078663          	beqz	a5,15a8 <game_step+0x1cc>
    15a0:	fff00793          	li	a5,-1
    15a4:	0c00006f          	j	1664 <game_step+0x288>
    15a8:	00101797          	auipc	a5,0x101
    15ac:	37c78793          	addi	a5,a5,892 # 102924 <snake_y>
    15b0:	0007a703          	lw	a4,0(a5)
    15b4:	00101797          	auipc	a5,0x101
    15b8:	36c78793          	addi	a5,a5,876 # 102920 <snake_x>
    15bc:	0007a583          	lw	a1,0(a5)
    15c0:	00101797          	auipc	a5,0x101
    15c4:	36878793          	addi	a5,a5,872 # 102928 <snake_len>
    15c8:	0007a683          	lw	a3,0(a5)
    15cc:	00101617          	auipc	a2,0x101
    15d0:	36860613          	addi	a2,a2,872 # 102934 <map>
    15d4:	00070793          	mv	a5,a4
    15d8:	00279793          	slli	a5,a5,0x2
    15dc:	00e787b3          	add	a5,a5,a4
    15e0:	00379793          	slli	a5,a5,0x3
    15e4:	00b787b3          	add	a5,a5,a1
    15e8:	00279793          	slli	a5,a5,0x2
    15ec:	00f607b3          	add	a5,a2,a5
    15f0:	00d7a023          	sw	a3,0(a5)
    15f4:	00101797          	auipc	a5,0x101
    15f8:	32c78793          	addi	a5,a5,812 # 102920 <snake_x>
    15fc:	0007a703          	lw	a4,0(a5)
    1600:	00101797          	auipc	a5,0x101
    1604:	32c78793          	addi	a5,a5,812 # 10292c <food_x>
    1608:	0007a783          	lw	a5,0(a5)
    160c:	04f71863          	bne	a4,a5,165c <game_step+0x280>
    1610:	00101797          	auipc	a5,0x101
    1614:	31478793          	addi	a5,a5,788 # 102924 <snake_y>
    1618:	0007a703          	lw	a4,0(a5)
    161c:	00101797          	auipc	a5,0x101
    1620:	31478793          	addi	a5,a5,788 # 102930 <food_y>
    1624:	0007a783          	lw	a5,0(a5)
    1628:	02f71a63          	bne	a4,a5,165c <game_step+0x280>
    162c:	00101797          	auipc	a5,0x101
    1630:	2fc78793          	addi	a5,a5,764 # 102928 <snake_len>
    1634:	0007a783          	lw	a5,0(a5)
    1638:	00178713          	addi	a4,a5,1
    163c:	00101797          	auipc	a5,0x101
    1640:	2ec78793          	addi	a5,a5,748 # 102928 <snake_len>
    1644:	00e7a023          	sw	a4,0(a5)
    1648:	afdff0ef          	jal	ra,1144 <new_food>
    164c:	00102797          	auipc	a5,0x102
    1650:	46878793          	addi	a5,a5,1128 # 103ab4 <ignore_next>
    1654:	00100713          	li	a4,1
    1658:	00e7a023          	sw	a4,0(a5)
    165c:	8e1ff0ef          	jal	ra,f3c <draw_graphic>
    1660:	00000793          	li	a5,0
    1664:	00078513          	mv	a0,a5
    1668:	01c12083          	lw	ra,28(sp)
    166c:	01812403          	lw	s0,24(sp)
    1670:	02010113          	addi	sp,sp,32
    1674:	00008067          	ret

00001678 <cmd_game>:
    1678:	fa010113          	addi	sp,sp,-96
    167c:	04112e23          	sw	ra,92(sp)
    1680:	04812c23          	sw	s0,88(sp)
    1684:	06010413          	addi	s0,sp,96
    1688:	faa42623          	sw	a0,-84(s0)
    168c:	000ff517          	auipc	a0,0xff
    1690:	98850513          	addi	a0,a0,-1656 # 100014 <digit.0+0x14>
    1694:	0b1010ef          	jal	ra,2f44 <putstr>
    1698:	fe0401a3          	sb	zero,-29(s0)
    169c:	00100793          	li	a5,1
    16a0:	fef42623          	sw	a5,-20(s0)
    16a4:	fc042e23          	sw	zero,-36(s0)
    16a8:	fe042423          	sw	zero,-24(s0)
    16ac:	fe042223          	sw	zero,-28(s0)
    16b0:	0c80006f          	j	1778 <cmd_game+0x100>
    16b4:	6d5000ef          	jal	ra,2588 <wait_keyboard>
    16b8:	00050793          	mv	a5,a0
    16bc:	fef401a3          	sb	a5,-29(s0)
    16c0:	fe344783          	lbu	a5,-29(s0)
    16c4:	03500713          	li	a4,53
    16c8:	02f74e63          	blt	a4,a5,1704 <cmd_game+0x8c>
    16cc:	03100713          	li	a4,49
    16d0:	0ae7c263          	blt	a5,a4,1774 <cmd_game+0xfc>
    16d4:	fcf78793          	addi	a5,a5,-49
    16d8:	00400713          	li	a4,4
    16dc:	08f76c63          	bltu	a4,a5,1774 <cmd_game+0xfc>
    16e0:	00279713          	slli	a4,a5,0x2
    16e4:	000ff797          	auipc	a5,0xff
    16e8:	9d878793          	addi	a5,a5,-1576 # 1000bc <digit.0+0xbc>
    16ec:	00f707b3          	add	a5,a4,a5
    16f0:	0007a703          	lw	a4,0(a5)
    16f4:	000ff797          	auipc	a5,0xff
    16f8:	9c878793          	addi	a5,a5,-1592 # 1000bc <digit.0+0xbc>
    16fc:	00f707b3          	add	a5,a4,a5
    1700:	00078067          	jr	a5
    1704:	07100713          	li	a4,113
    1708:	06e79663          	bne	a5,a4,1774 <cmd_game+0xfc>
    170c:	00000793          	li	a5,0
    1710:	3280006f          	j	1a38 <cmd_game+0x3c0>
    1714:	fe042623          	sw	zero,-20(s0)
    1718:	00100793          	li	a5,1
    171c:	fef42423          	sw	a5,-24(s0)
    1720:	0580006f          	j	1778 <cmd_game+0x100>
    1724:	00100793          	li	a5,1
    1728:	fef42623          	sw	a5,-20(s0)
    172c:	00100793          	li	a5,1
    1730:	fef42423          	sw	a5,-24(s0)
    1734:	0440006f          	j	1778 <cmd_game+0x100>
    1738:	00200793          	li	a5,2
    173c:	fef42623          	sw	a5,-20(s0)
    1740:	00100793          	li	a5,1
    1744:	fef42423          	sw	a5,-24(s0)
    1748:	0300006f          	j	1778 <cmd_game+0x100>
    174c:	00300793          	li	a5,3
    1750:	fef42623          	sw	a5,-20(s0)
    1754:	00100793          	li	a5,1
    1758:	fef42423          	sw	a5,-24(s0)
    175c:	01c0006f          	j	1778 <cmd_game+0x100>
    1760:	00400793          	li	a5,4
    1764:	fef42623          	sw	a5,-20(s0)
    1768:	00100793          	li	a5,1
    176c:	fef42423          	sw	a5,-24(s0)
    1770:	0080006f          	j	1778 <cmd_game+0x100>
    1774:	00000013          	nop
    1778:	fe842783          	lw	a5,-24(s0)
    177c:	f2078ce3          	beqz	a5,16b4 <cmd_game+0x3c>
    1780:	aa5ff0ef          	jal	ra,1224 <init_game>
    1784:	66d000ef          	jal	ra,25f0 <get_keyboard>
    1788:	00050793          	mv	a5,a0
    178c:	fef401a3          	sb	a5,-29(s0)
    1790:	fe344783          	lbu	a5,-29(s0)
    1794:	fbf78793          	addi	a5,a5,-65
    1798:	03600713          	li	a4,54
    179c:	1af76863          	bltu	a4,a5,194c <cmd_game+0x2d4>
    17a0:	00279713          	slli	a4,a5,0x2
    17a4:	000ff797          	auipc	a5,0xff
    17a8:	92c78793          	addi	a5,a5,-1748 # 1000d0 <digit.0+0xd0>
    17ac:	00f707b3          	add	a5,a4,a5
    17b0:	0007a703          	lw	a4,0(a5)
    17b4:	000ff797          	auipc	a5,0xff
    17b8:	91c78793          	addi	a5,a5,-1764 # 1000d0 <digit.0+0xd0>
    17bc:	00f707b3          	add	a5,a4,a5
    17c0:	00078067          	jr	a5
    17c4:	188010ef          	jal	ra,294c <roll_up>
    17c8:	00101797          	auipc	a5,0x101
    17cc:	16078793          	addi	a5,a5,352 # 102928 <snake_len>
    17d0:	0007a783          	lw	a5,0(a5)
    17d4:	00078713          	mv	a4,a5
    17d8:	fb840793          	addi	a5,s0,-72
    17dc:	00a00613          	li	a2,10
    17e0:	00078593          	mv	a1,a5
    17e4:	00070513          	mv	a0,a4
    17e8:	c01fe0ef          	jal	ra,3e8 <itoa>
    17ec:	fca42e23          	sw	a0,-36(s0)
    17f0:	000ff517          	auipc	a0,0xff
    17f4:	8a850513          	addi	a0,a0,-1880 # 100098 <digit.0+0x98>
    17f8:	74c010ef          	jal	ra,2f44 <putstr>
    17fc:	fb840793          	addi	a5,s0,-72
    1800:	00078513          	mv	a0,a5
    1804:	740010ef          	jal	ra,2f44 <putstr>
    1808:	000ff517          	auipc	a0,0xff
    180c:	8b050513          	addi	a0,a0,-1872 # 1000b8 <digit.0+0xb8>
    1810:	734010ef          	jal	ra,2f44 <putstr>
    1814:	00000793          	li	a5,0
    1818:	2200006f          	j	1a38 <cmd_game+0x3c0>
    181c:	00101797          	auipc	a5,0x101
    1820:	10078793          	addi	a5,a5,256 # 10291c <snake_dir>
    1824:	0007a703          	lw	a4,0(a5)
    1828:	00100793          	li	a5,1
    182c:	12f70463          	beq	a4,a5,1954 <cmd_game+0x2dc>
    1830:	00101797          	auipc	a5,0x101
    1834:	0ec78793          	addi	a5,a5,236 # 10291c <snake_dir>
    1838:	0007a023          	sw	zero,0(a5)
    183c:	1180006f          	j	1954 <cmd_game+0x2dc>
    1840:	00101797          	auipc	a5,0x101
    1844:	0dc78793          	addi	a5,a5,220 # 10291c <snake_dir>
    1848:	0007a783          	lw	a5,0(a5)
    184c:	10078863          	beqz	a5,195c <cmd_game+0x2e4>
    1850:	00101797          	auipc	a5,0x101
    1854:	0cc78793          	addi	a5,a5,204 # 10291c <snake_dir>
    1858:	00100713          	li	a4,1
    185c:	00e7a023          	sw	a4,0(a5)
    1860:	0fc0006f          	j	195c <cmd_game+0x2e4>
    1864:	00101797          	auipc	a5,0x101
    1868:	0b878793          	addi	a5,a5,184 # 10291c <snake_dir>
    186c:	0007a703          	lw	a4,0(a5)
    1870:	00300793          	li	a5,3
    1874:	0ef70863          	beq	a4,a5,1964 <cmd_game+0x2ec>
    1878:	00101797          	auipc	a5,0x101
    187c:	0a478793          	addi	a5,a5,164 # 10291c <snake_dir>
    1880:	00200713          	li	a4,2
    1884:	00e7a023          	sw	a4,0(a5)
    1888:	0dc0006f          	j	1964 <cmd_game+0x2ec>
    188c:	00101797          	auipc	a5,0x101
    1890:	09078793          	addi	a5,a5,144 # 10291c <snake_dir>
    1894:	0007a703          	lw	a4,0(a5)
    1898:	00200793          	li	a5,2
    189c:	0cf70863          	beq	a4,a5,196c <cmd_game+0x2f4>
    18a0:	00101797          	auipc	a5,0x101
    18a4:	07c78793          	addi	a5,a5,124 # 10291c <snake_dir>
    18a8:	00300713          	li	a4,3
    18ac:	00e7a023          	sw	a4,0(a5)
    18b0:	0bc0006f          	j	196c <cmd_game+0x2f4>
    18b4:	00101797          	auipc	a5,0x101
    18b8:	06878793          	addi	a5,a5,104 # 10291c <snake_dir>
    18bc:	0007a703          	lw	a4,0(a5)
    18c0:	00100793          	li	a5,1
    18c4:	0af70863          	beq	a4,a5,1974 <cmd_game+0x2fc>
    18c8:	00101797          	auipc	a5,0x101
    18cc:	05478793          	addi	a5,a5,84 # 10291c <snake_dir>
    18d0:	0007a023          	sw	zero,0(a5)
    18d4:	0a00006f          	j	1974 <cmd_game+0x2fc>
    18d8:	00101797          	auipc	a5,0x101
    18dc:	04478793          	addi	a5,a5,68 # 10291c <snake_dir>
    18e0:	0007a783          	lw	a5,0(a5)
    18e4:	08078c63          	beqz	a5,197c <cmd_game+0x304>
    18e8:	00101797          	auipc	a5,0x101
    18ec:	03478793          	addi	a5,a5,52 # 10291c <snake_dir>
    18f0:	00100713          	li	a4,1
    18f4:	00e7a023          	sw	a4,0(a5)
    18f8:	0840006f          	j	197c <cmd_game+0x304>
    18fc:	00101797          	auipc	a5,0x101
    1900:	02078793          	addi	a5,a5,32 # 10291c <snake_dir>
    1904:	0007a703          	lw	a4,0(a5)
    1908:	00300793          	li	a5,3
    190c:	06f70c63          	beq	a4,a5,1984 <cmd_game+0x30c>
    1910:	00101797          	auipc	a5,0x101
    1914:	00c78793          	addi	a5,a5,12 # 10291c <snake_dir>
    1918:	00200713          	li	a4,2
    191c:	00e7a023          	sw	a4,0(a5)
    1920:	0640006f          	j	1984 <cmd_game+0x30c>
    1924:	00101797          	auipc	a5,0x101
    1928:	ff878793          	addi	a5,a5,-8 # 10291c <snake_dir>
    192c:	0007a703          	lw	a4,0(a5)
    1930:	00200793          	li	a5,2
    1934:	04f70c63          	beq	a4,a5,198c <cmd_game+0x314>
    1938:	00101797          	auipc	a5,0x101
    193c:	fe478793          	addi	a5,a5,-28 # 10291c <snake_dir>
    1940:	00300713          	li	a4,3
    1944:	00e7a023          	sw	a4,0(a5)
    1948:	0440006f          	j	198c <cmd_game+0x314>
    194c:	00000013          	nop
    1950:	0400006f          	j	1990 <cmd_game+0x318>
    1954:	00000013          	nop
    1958:	0380006f          	j	1990 <cmd_game+0x318>
    195c:	00000013          	nop
    1960:	0300006f          	j	1990 <cmd_game+0x318>
    1964:	00000013          	nop
    1968:	0280006f          	j	1990 <cmd_game+0x318>
    196c:	00000013          	nop
    1970:	0200006f          	j	1990 <cmd_game+0x318>
    1974:	00000013          	nop
    1978:	0180006f          	j	1990 <cmd_game+0x318>
    197c:	00000013          	nop
    1980:	0100006f          	j	1990 <cmd_game+0x318>
    1984:	00000013          	nop
    1988:	0080006f          	j	1990 <cmd_game+0x318>
    198c:	00000013          	nop
    1990:	004007b7          	lui	a5,0x400
    1994:	0007a683          	lw	a3,0(a5) # 400000 <_end+0x2fa400>
    1998:	000ff717          	auipc	a4,0xff
    199c:	cc070713          	addi	a4,a4,-832 # 100658 <difficulty>
    19a0:	fec42783          	lw	a5,-20(s0)
    19a4:	00279793          	slli	a5,a5,0x2
    19a8:	00f707b3          	add	a5,a4,a5
    19ac:	0007a783          	lw	a5,0(a5)
    19b0:	00078593          	mv	a1,a5
    19b4:	00068513          	mv	a0,a3
    19b8:	fd0fe0ef          	jal	ra,188 <__udivsi3>
    19bc:	00050793          	mv	a5,a0
    19c0:	fcf42c23          	sw	a5,-40(s0)
    19c4:	fd842703          	lw	a4,-40(s0)
    19c8:	fe442783          	lw	a5,-28(s0)
    19cc:	dae7fce3          	bgeu	a5,a4,1784 <cmd_game+0x10c>
    19d0:	fd842783          	lw	a5,-40(s0)
    19d4:	fef42223          	sw	a5,-28(s0)
    19d8:	a05ff0ef          	jal	ra,13dc <game_step>
    19dc:	00050793          	mv	a5,a0
    19e0:	da07d2e3          	bgez	a5,1784 <cmd_game+0x10c>
    19e4:	769000ef          	jal	ra,294c <roll_up>
    19e8:	00101797          	auipc	a5,0x101
    19ec:	f4078793          	addi	a5,a5,-192 # 102928 <snake_len>
    19f0:	0007a783          	lw	a5,0(a5)
    19f4:	00078713          	mv	a4,a5
    19f8:	fb840793          	addi	a5,s0,-72
    19fc:	00a00613          	li	a2,10
    1a00:	00078593          	mv	a1,a5
    1a04:	00070513          	mv	a0,a4
    1a08:	9e1fe0ef          	jal	ra,3e8 <itoa>
    1a0c:	fca42e23          	sw	a0,-36(s0)
    1a10:	000fe517          	auipc	a0,0xfe
    1a14:	68850513          	addi	a0,a0,1672 # 100098 <digit.0+0x98>
    1a18:	52c010ef          	jal	ra,2f44 <putstr>
    1a1c:	fb840793          	addi	a5,s0,-72
    1a20:	00078513          	mv	a0,a5
    1a24:	520010ef          	jal	ra,2f44 <putstr>
    1a28:	000fe517          	auipc	a0,0xfe
    1a2c:	69050513          	addi	a0,a0,1680 # 1000b8 <digit.0+0xb8>
    1a30:	514010ef          	jal	ra,2f44 <putstr>
    1a34:	00000793          	li	a5,0
    1a38:	00078513          	mv	a0,a5
    1a3c:	05c12083          	lw	ra,92(sp)
    1a40:	05812403          	lw	s0,88(sp)
    1a44:	06010113          	addi	sp,sp,96
    1a48:	00008067          	ret

00001a4c <cmd_timer>:
    1a4c:	fa010113          	addi	sp,sp,-96
    1a50:	04112e23          	sw	ra,92(sp)
    1a54:	04812c23          	sw	s0,88(sp)
    1a58:	06010413          	addi	s0,sp,96
    1a5c:	faa42623          	sw	a0,-84(s0)
    1a60:	01400793          	li	a5,20
    1a64:	fef42423          	sw	a5,-24(s0)
    1a68:	fe0403a3          	sb	zero,-25(s0)
    1a6c:	fe042623          	sw	zero,-20(s0)
    1a70:	fe042023          	sw	zero,-32(s0)
    1a74:	37d000ef          	jal	ra,25f0 <get_keyboard>
    1a78:	00050793          	mv	a5,a0
    1a7c:	fef403a3          	sb	a5,-25(s0)
    1a80:	fe744703          	lbu	a4,-25(s0)
    1a84:	07100793          	li	a5,113
    1a88:	00f71663          	bne	a4,a5,1a94 <cmd_timer+0x48>
    1a8c:	00000793          	li	a5,0
    1a90:	19c0006f          	j	1c2c <cmd_timer+0x1e0>
    1a94:	004007b7          	lui	a5,0x400
    1a98:	0007a783          	lw	a5,0(a5) # 400000 <_end+0x2fa400>
    1a9c:	fe842583          	lw	a1,-24(s0)
    1aa0:	00078513          	mv	a0,a5
    1aa4:	ee4fe0ef          	jal	ra,188 <__udivsi3>
    1aa8:	00050793          	mv	a5,a0
    1aac:	fcf42e23          	sw	a5,-36(s0)
    1ab0:	fdc42703          	lw	a4,-36(s0)
    1ab4:	fec42783          	lw	a5,-20(s0)
    1ab8:	fae7fee3          	bgeu	a5,a4,1a74 <cmd_timer+0x28>
    1abc:	fdc42783          	lw	a5,-36(s0)
    1ac0:	fef42623          	sw	a5,-20(s0)
    1ac4:	004007b7          	lui	a5,0x400
    1ac8:	0007a783          	lw	a5,0(a5) # 400000 <_end+0x2fa400>
    1acc:	3e800593          	li	a1,1000
    1ad0:	00078513          	mv	a0,a5
    1ad4:	eb4fe0ef          	jal	ra,188 <__udivsi3>
    1ad8:	00050793          	mv	a5,a0
    1adc:	fcf42c23          	sw	a5,-40(s0)
    1ae0:	4c9000ef          	jal	ra,27a8 <vga_init>
    1ae4:	000fe517          	auipc	a0,0xfe
    1ae8:	6c850513          	addi	a0,a0,1736 # 1001ac <digit.0+0x1ac>
    1aec:	458010ef          	jal	ra,2f44 <putstr>
    1af0:	fd842703          	lw	a4,-40(s0)
    1af4:	000017b7          	lui	a5,0x1
    1af8:	e1078593          	addi	a1,a5,-496 # e10 <logo_step+0x1a0>
    1afc:	00070513          	mv	a0,a4
    1b00:	e88fe0ef          	jal	ra,188 <__udivsi3>
    1b04:	00050793          	mv	a5,a0
    1b08:	00078713          	mv	a4,a5
    1b0c:	fb840793          	addi	a5,s0,-72
    1b10:	00a00613          	li	a2,10
    1b14:	00078593          	mv	a1,a5
    1b18:	00070513          	mv	a0,a4
    1b1c:	8cdfe0ef          	jal	ra,3e8 <itoa>
    1b20:	fea42023          	sw	a0,-32(s0)
    1b24:	fb840793          	addi	a5,s0,-72
    1b28:	00078513          	mv	a0,a5
    1b2c:	418010ef          	jal	ra,2f44 <putstr>
    1b30:	000fe517          	auipc	a0,0xfe
    1b34:	68850513          	addi	a0,a0,1672 # 1001b8 <digit.0+0x1b8>
    1b38:	40c010ef          	jal	ra,2f44 <putstr>
    1b3c:	fd842783          	lw	a5,-40(s0)
    1b40:	03c00593          	li	a1,60
    1b44:	00078513          	mv	a0,a5
    1b48:	e40fe0ef          	jal	ra,188 <__udivsi3>
    1b4c:	00050793          	mv	a5,a0
    1b50:	03c00593          	li	a1,60
    1b54:	00078513          	mv	a0,a5
    1b58:	d74fe0ef          	jal	ra,cc <__umodsi3>
    1b5c:	00050793          	mv	a5,a0
    1b60:	00078713          	mv	a4,a5
    1b64:	fb840793          	addi	a5,s0,-72
    1b68:	00a00613          	li	a2,10
    1b6c:	00078593          	mv	a1,a5
    1b70:	00070513          	mv	a0,a4
    1b74:	875fe0ef          	jal	ra,3e8 <itoa>
    1b78:	fea42023          	sw	a0,-32(s0)
    1b7c:	fb840793          	addi	a5,s0,-72
    1b80:	00078513          	mv	a0,a5
    1b84:	3c0010ef          	jal	ra,2f44 <putstr>
    1b88:	000fe517          	auipc	a0,0xfe
    1b8c:	63450513          	addi	a0,a0,1588 # 1001bc <digit.0+0x1bc>
    1b90:	3b4010ef          	jal	ra,2f44 <putstr>
    1b94:	fd842783          	lw	a5,-40(s0)
    1b98:	03c00593          	li	a1,60
    1b9c:	00078513          	mv	a0,a5
    1ba0:	d2cfe0ef          	jal	ra,cc <__umodsi3>
    1ba4:	00050793          	mv	a5,a0
    1ba8:	00078713          	mv	a4,a5
    1bac:	fb840793          	addi	a5,s0,-72
    1bb0:	00a00613          	li	a2,10
    1bb4:	00078593          	mv	a1,a5
    1bb8:	00070513          	mv	a0,a4
    1bbc:	82dfe0ef          	jal	ra,3e8 <itoa>
    1bc0:	fea42023          	sw	a0,-32(s0)
    1bc4:	fb840793          	addi	a5,s0,-72
    1bc8:	00078513          	mv	a0,a5
    1bcc:	378010ef          	jal	ra,2f44 <putstr>
    1bd0:	000fe517          	auipc	a0,0xfe
    1bd4:	5f050513          	addi	a0,a0,1520 # 1001c0 <digit.0+0x1c0>
    1bd8:	36c010ef          	jal	ra,2f44 <putstr>
    1bdc:	004007b7          	lui	a5,0x400
    1be0:	0007a783          	lw	a5,0(a5) # 400000 <_end+0x2fa400>
    1be4:	3e800593          	li	a1,1000
    1be8:	00078513          	mv	a0,a5
    1bec:	ce0fe0ef          	jal	ra,cc <__umodsi3>
    1bf0:	00050793          	mv	a5,a0
    1bf4:	00078713          	mv	a4,a5
    1bf8:	fb840793          	addi	a5,s0,-72
    1bfc:	00a00613          	li	a2,10
    1c00:	00078593          	mv	a1,a5
    1c04:	00070513          	mv	a0,a4
    1c08:	fe0fe0ef          	jal	ra,3e8 <itoa>
    1c0c:	fea42023          	sw	a0,-32(s0)
    1c10:	fb840793          	addi	a5,s0,-72
    1c14:	00078513          	mv	a0,a5
    1c18:	32c010ef          	jal	ra,2f44 <putstr>
    1c1c:	000fe517          	auipc	a0,0xfe
    1c20:	5a850513          	addi	a0,a0,1448 # 1001c4 <digit.0+0x1c4>
    1c24:	320010ef          	jal	ra,2f44 <putstr>
    1c28:	e4dff06f          	j	1a74 <cmd_timer+0x28>
    1c2c:	00078513          	mv	a0,a5
    1c30:	05c12083          	lw	ra,92(sp)
    1c34:	05812403          	lw	s0,88(sp)
    1c38:	06010113          	addi	sp,sp,96
    1c3c:	00008067          	ret

00001c40 <extract_token>:
    1c40:	fd010113          	addi	sp,sp,-48
    1c44:	02812623          	sw	s0,44(sp)
    1c48:	03010413          	addi	s0,sp,48
    1c4c:	fca42e23          	sw	a0,-36(s0)
    1c50:	fcb42c23          	sw	a1,-40(s0)
    1c54:	fcc42a23          	sw	a2,-44(s0)
    1c58:	fd442783          	lw	a5,-44(s0)
    1c5c:	fef42623          	sw	a5,-20(s0)
    1c60:	fdc42783          	lw	a5,-36(s0)
    1c64:	fef42423          	sw	a5,-24(s0)
    1c68:	fd842783          	lw	a5,-40(s0)
    1c6c:	fef42223          	sw	a5,-28(s0)
    1c70:	fe842783          	lw	a5,-24(s0)
    1c74:	00078023          	sb	zero,0(a5)
    1c78:	fe442783          	lw	a5,-28(s0)
    1c7c:	00078023          	sb	zero,0(a5)
    1c80:	02c0006f          	j	1cac <extract_token+0x6c>
    1c84:	fec42783          	lw	a5,-20(s0)
    1c88:	0007c703          	lbu	a4,0(a5)
    1c8c:	fe842783          	lw	a5,-24(s0)
    1c90:	00e78023          	sb	a4,0(a5)
    1c94:	fe842783          	lw	a5,-24(s0)
    1c98:	00178793          	addi	a5,a5,1
    1c9c:	fef42423          	sw	a5,-24(s0)
    1ca0:	fec42783          	lw	a5,-20(s0)
    1ca4:	00178793          	addi	a5,a5,1
    1ca8:	fef42623          	sw	a5,-20(s0)
    1cac:	fec42783          	lw	a5,-20(s0)
    1cb0:	0007c783          	lbu	a5,0(a5)
    1cb4:	00078a63          	beqz	a5,1cc8 <extract_token+0x88>
    1cb8:	fec42783          	lw	a5,-20(s0)
    1cbc:	0007c703          	lbu	a4,0(a5)
    1cc0:	02000793          	li	a5,32
    1cc4:	fcf710e3          	bne	a4,a5,1c84 <extract_token+0x44>
    1cc8:	fe842783          	lw	a5,-24(s0)
    1ccc:	00078023          	sb	zero,0(a5)
    1cd0:	fec42783          	lw	a5,-20(s0)
    1cd4:	0007c783          	lbu	a5,0(a5)
    1cd8:	04078a63          	beqz	a5,1d2c <extract_token+0xec>
    1cdc:	fec42783          	lw	a5,-20(s0)
    1ce0:	00178793          	addi	a5,a5,1
    1ce4:	fef42623          	sw	a5,-20(s0)
    1ce8:	02c0006f          	j	1d14 <extract_token+0xd4>
    1cec:	fec42783          	lw	a5,-20(s0)
    1cf0:	0007c703          	lbu	a4,0(a5)
    1cf4:	fe442783          	lw	a5,-28(s0)
    1cf8:	00e78023          	sb	a4,0(a5)
    1cfc:	fe442783          	lw	a5,-28(s0)
    1d00:	00178793          	addi	a5,a5,1
    1d04:	fef42223          	sw	a5,-28(s0)
    1d08:	fec42783          	lw	a5,-20(s0)
    1d0c:	00178793          	addi	a5,a5,1
    1d10:	fef42623          	sw	a5,-20(s0)
    1d14:	fec42783          	lw	a5,-20(s0)
    1d18:	0007c783          	lbu	a5,0(a5)
    1d1c:	fc0798e3          	bnez	a5,1cec <extract_token+0xac>
    1d20:	fe442783          	lw	a5,-28(s0)
    1d24:	00078023          	sb	zero,0(a5)
    1d28:	0080006f          	j	1d30 <extract_token+0xf0>
    1d2c:	00000013          	nop
    1d30:	02c12403          	lw	s0,44(sp)
    1d34:	03010113          	addi	sp,sp,48
    1d38:	00008067          	ret

00001d3c <rl_gets>:
    1d3c:	ff010113          	addi	sp,sp,-16
    1d40:	00112623          	sw	ra,12(sp)
    1d44:	00812423          	sw	s0,8(sp)
    1d48:	01010413          	addi	s0,sp,16
    1d4c:	00102797          	auipc	a5,0x102
    1d50:	d6c78793          	addi	a5,a5,-660 # 103ab8 <line_read>
    1d54:	00078023          	sb	zero,0(a5)
    1d58:	000fe517          	auipc	a0,0xfe
    1d5c:	49850513          	addi	a0,a0,1176 # 1001f0 <digit.0+0x1f0>
    1d60:	1e4010ef          	jal	ra,2f44 <putstr>
    1d64:	00102517          	auipc	a0,0x102
    1d68:	d5450513          	addi	a0,a0,-684 # 103ab8 <line_read>
    1d6c:	6dc000ef          	jal	ra,2448 <wait_line>
    1d70:	00102517          	auipc	a0,0x102
    1d74:	d4850513          	addi	a0,a0,-696 # 103ab8 <line_read>
    1d78:	fd4fe0ef          	jal	ra,54c <strlen>
    1d7c:	00050713          	mv	a4,a0
    1d80:	00102797          	auipc	a5,0x102
    1d84:	d3878793          	addi	a5,a5,-712 # 103ab8 <line_read>
    1d88:	00e787b3          	add	a5,a5,a4
    1d8c:	00078023          	sb	zero,0(a5)
    1d90:	00102797          	auipc	a5,0x102
    1d94:	d2878793          	addi	a5,a5,-728 # 103ab8 <line_read>
    1d98:	00078513          	mv	a0,a5
    1d9c:	00c12083          	lw	ra,12(sp)
    1da0:	00812403          	lw	s0,8(sp)
    1da4:	01010113          	addi	sp,sp,16
    1da8:	00008067          	ret

00001dac <cmd_hello>:
    1dac:	fe010113          	addi	sp,sp,-32
    1db0:	00112e23          	sw	ra,28(sp)
    1db4:	00812c23          	sw	s0,24(sp)
    1db8:	02010413          	addi	s0,sp,32
    1dbc:	fea42623          	sw	a0,-20(s0)
    1dc0:	000fe517          	auipc	a0,0xfe
    1dc4:	44450513          	addi	a0,a0,1092 # 100204 <digit.0+0x204>
    1dc8:	17c010ef          	jal	ra,2f44 <putstr>
    1dcc:	00000793          	li	a5,0
    1dd0:	00078513          	mv	a0,a5
    1dd4:	01c12083          	lw	ra,28(sp)
    1dd8:	01812403          	lw	s0,24(sp)
    1ddc:	02010113          	addi	sp,sp,32
    1de0:	00008067          	ret

00001de4 <cmd_echo>:
    1de4:	fe010113          	addi	sp,sp,-32
    1de8:	00112e23          	sw	ra,28(sp)
    1dec:	00812c23          	sw	s0,24(sp)
    1df0:	02010413          	addi	s0,sp,32
    1df4:	fea42623          	sw	a0,-20(s0)
    1df8:	fec42503          	lw	a0,-20(s0)
    1dfc:	148010ef          	jal	ra,2f44 <putstr>
    1e00:	00a00513          	li	a0,10
    1e04:	585000ef          	jal	ra,2b88 <putch>
    1e08:	00000793          	li	a5,0
    1e0c:	00078513          	mv	a0,a5
    1e10:	01c12083          	lw	ra,28(sp)
    1e14:	01812403          	lw	s0,24(sp)
    1e18:	02010113          	addi	sp,sp,32
    1e1c:	00008067          	ret

00001e20 <fiball>:
    1e20:	fe010113          	addi	sp,sp,-32
    1e24:	00812e23          	sw	s0,28(sp)
    1e28:	02010413          	addi	s0,sp,32
    1e2c:	00100797          	auipc	a5,0x100
    1e30:	9a878793          	addi	a5,a5,-1624 # 1017d4 <fib>
    1e34:	0007a023          	sw	zero,0(a5)
    1e38:	00100797          	auipc	a5,0x100
    1e3c:	99c78793          	addi	a5,a5,-1636 # 1017d4 <fib>
    1e40:	00100713          	li	a4,1
    1e44:	00e7a223          	sw	a4,4(a5)
    1e48:	00200793          	li	a5,2
    1e4c:	fef42623          	sw	a5,-20(s0)
    1e50:	0640006f          	j	1eb4 <fiball+0x94>
    1e54:	fec42783          	lw	a5,-20(s0)
    1e58:	fff78793          	addi	a5,a5,-1
    1e5c:	00100717          	auipc	a4,0x100
    1e60:	97870713          	addi	a4,a4,-1672 # 1017d4 <fib>
    1e64:	00279793          	slli	a5,a5,0x2
    1e68:	00f707b3          	add	a5,a4,a5
    1e6c:	0007a703          	lw	a4,0(a5)
    1e70:	fec42783          	lw	a5,-20(s0)
    1e74:	ffe78793          	addi	a5,a5,-2
    1e78:	00100697          	auipc	a3,0x100
    1e7c:	95c68693          	addi	a3,a3,-1700 # 1017d4 <fib>
    1e80:	00279793          	slli	a5,a5,0x2
    1e84:	00f687b3          	add	a5,a3,a5
    1e88:	0007a783          	lw	a5,0(a5)
    1e8c:	00f70733          	add	a4,a4,a5
    1e90:	00100697          	auipc	a3,0x100
    1e94:	94468693          	addi	a3,a3,-1724 # 1017d4 <fib>
    1e98:	fec42783          	lw	a5,-20(s0)
    1e9c:	00279793          	slli	a5,a5,0x2
    1ea0:	00f687b3          	add	a5,a3,a5
    1ea4:	00e7a023          	sw	a4,0(a5)
    1ea8:	fec42783          	lw	a5,-20(s0)
    1eac:	00178793          	addi	a5,a5,1
    1eb0:	fef42623          	sw	a5,-20(s0)
    1eb4:	fec42703          	lw	a4,-20(s0)
    1eb8:	03100793          	li	a5,49
    1ebc:	f8e7dce3          	bge	a5,a4,1e54 <fiball+0x34>
    1ec0:	00000013          	nop
    1ec4:	00000013          	nop
    1ec8:	01c12403          	lw	s0,28(sp)
    1ecc:	02010113          	addi	sp,sp,32
    1ed0:	00008067          	ret

00001ed4 <cmd_fib>:
    1ed4:	eb010113          	addi	sp,sp,-336
    1ed8:	14112623          	sw	ra,332(sp)
    1edc:	14812423          	sw	s0,328(sp)
    1ee0:	15010413          	addi	s0,sp,336
    1ee4:	eaa42e23          	sw	a0,-324(s0)
    1ee8:	fe042423          	sw	zero,-24(s0)
    1eec:	ee040713          	addi	a4,s0,-288
    1ef0:	f6040793          	addi	a5,s0,-160
    1ef4:	ebc42603          	lw	a2,-324(s0)
    1ef8:	00070593          	mv	a1,a4
    1efc:	00078513          	mv	a0,a5
    1f00:	d41ff0ef          	jal	ra,1c40 <extract_token>
    1f04:	ee044783          	lbu	a5,-288(s0)
    1f08:	0a079063          	bnez	a5,1fa8 <cmd_fib+0xd4>
    1f0c:	f6040793          	addi	a5,s0,-160
    1f10:	00078513          	mv	a0,a5
    1f14:	c30fe0ef          	jal	ra,344 <atoi>
    1f18:	fea42023          	sw	a0,-32(s0)
    1f1c:	fe042783          	lw	a5,-32(s0)
    1f20:	0007dc63          	bgez	a5,1f38 <cmd_fib+0x64>
    1f24:	000fe517          	auipc	a0,0xfe
    1f28:	2f050513          	addi	a0,a0,752 # 100214 <digit.0+0x214>
    1f2c:	018010ef          	jal	ra,2f44 <putstr>
    1f30:	00000793          	li	a5,0
    1f34:	1b40006f          	j	20e8 <cmd_fib+0x214>
    1f38:	fe042703          	lw	a4,-32(s0)
    1f3c:	02e00793          	li	a5,46
    1f40:	00e7dc63          	bge	a5,a4,1f58 <cmd_fib+0x84>
    1f44:	000fe517          	auipc	a0,0xfe
    1f48:	2f450513          	addi	a0,a0,756 # 100238 <digit.0+0x238>
    1f4c:	7f9000ef          	jal	ra,2f44 <putstr>
    1f50:	00000793          	li	a5,0
    1f54:	1940006f          	j	20e8 <cmd_fib+0x214>
    1f58:	00100717          	auipc	a4,0x100
    1f5c:	87c70713          	addi	a4,a4,-1924 # 1017d4 <fib>
    1f60:	fe042783          	lw	a5,-32(s0)
    1f64:	00279793          	slli	a5,a5,0x2
    1f68:	00f707b3          	add	a5,a4,a5
    1f6c:	0007a783          	lw	a5,0(a5)
    1f70:	00078713          	mv	a4,a5
    1f74:	ec040793          	addi	a5,s0,-320
    1f78:	00a00613          	li	a2,10
    1f7c:	00078593          	mv	a1,a5
    1f80:	00070513          	mv	a0,a4
    1f84:	c64fe0ef          	jal	ra,3e8 <itoa>
    1f88:	fea42423          	sw	a0,-24(s0)
    1f8c:	ec040793          	addi	a5,s0,-320
    1f90:	00078513          	mv	a0,a5
    1f94:	7b1000ef          	jal	ra,2f44 <putstr>
    1f98:	00a00513          	li	a0,10
    1f9c:	3ed000ef          	jal	ra,2b88 <putch>
    1fa0:	00000793          	li	a5,0
    1fa4:	1440006f          	j	20e8 <cmd_fib+0x214>
    1fa8:	ee040793          	addi	a5,s0,-288
    1fac:	000fe597          	auipc	a1,0xfe
    1fb0:	2b058593          	addi	a1,a1,688 # 10025c <digit.0+0x25c>
    1fb4:	00078513          	mv	a0,a5
    1fb8:	f58fe0ef          	jal	ra,710 <strcmp>
    1fbc:	00050793          	mv	a5,a0
    1fc0:	10079063          	bnez	a5,20c0 <cmd_fib+0x1ec>
    1fc4:	f6040793          	addi	a5,s0,-160
    1fc8:	00078513          	mv	a0,a5
    1fcc:	b78fe0ef          	jal	ra,344 <atoi>
    1fd0:	fea42223          	sw	a0,-28(s0)
    1fd4:	fe442783          	lw	a5,-28(s0)
    1fd8:	0007dc63          	bgez	a5,1ff0 <cmd_fib+0x11c>
    1fdc:	000fe517          	auipc	a0,0xfe
    1fe0:	23850513          	addi	a0,a0,568 # 100214 <digit.0+0x214>
    1fe4:	761000ef          	jal	ra,2f44 <putstr>
    1fe8:	00000793          	li	a5,0
    1fec:	0fc0006f          	j	20e8 <cmd_fib+0x214>
    1ff0:	fe442703          	lw	a4,-28(s0)
    1ff4:	02e00793          	li	a5,46
    1ff8:	00e7dc63          	bge	a5,a4,2010 <cmd_fib+0x13c>
    1ffc:	000fe517          	auipc	a0,0xfe
    2000:	23c50513          	addi	a0,a0,572 # 100238 <digit.0+0x238>
    2004:	741000ef          	jal	ra,2f44 <putstr>
    2008:	00000793          	li	a5,0
    200c:	0dc0006f          	j	20e8 <cmd_fib+0x214>
    2010:	fe042623          	sw	zero,-20(s0)
    2014:	0980006f          	j	20ac <cmd_fib+0x1d8>
    2018:	000fe517          	auipc	a0,0xfe
    201c:	24850513          	addi	a0,a0,584 # 100260 <digit.0+0x260>
    2020:	725000ef          	jal	ra,2f44 <putstr>
    2024:	fec42783          	lw	a5,-20(s0)
    2028:	ec040713          	addi	a4,s0,-320
    202c:	00a00613          	li	a2,10
    2030:	00070593          	mv	a1,a4
    2034:	00078513          	mv	a0,a5
    2038:	bb0fe0ef          	jal	ra,3e8 <itoa>
    203c:	fea42423          	sw	a0,-24(s0)
    2040:	ec040793          	addi	a5,s0,-320
    2044:	00078513          	mv	a0,a5
    2048:	6fd000ef          	jal	ra,2f44 <putstr>
    204c:	000fe517          	auipc	a0,0xfe
    2050:	21850513          	addi	a0,a0,536 # 100264 <digit.0+0x264>
    2054:	6f1000ef          	jal	ra,2f44 <putstr>
    2058:	000ff717          	auipc	a4,0xff
    205c:	77c70713          	addi	a4,a4,1916 # 1017d4 <fib>
    2060:	fec42783          	lw	a5,-20(s0)
    2064:	00279793          	slli	a5,a5,0x2
    2068:	00f707b3          	add	a5,a4,a5
    206c:	0007a783          	lw	a5,0(a5)
    2070:	00078713          	mv	a4,a5
    2074:	ec040793          	addi	a5,s0,-320
    2078:	00a00613          	li	a2,10
    207c:	00078593          	mv	a1,a5
    2080:	00070513          	mv	a0,a4
    2084:	b64fe0ef          	jal	ra,3e8 <itoa>
    2088:	fea42423          	sw	a0,-24(s0)
    208c:	ec040793          	addi	a5,s0,-320
    2090:	00078513          	mv	a0,a5
    2094:	6b1000ef          	jal	ra,2f44 <putstr>
    2098:	00a00513          	li	a0,10
    209c:	2ed000ef          	jal	ra,2b88 <putch>
    20a0:	fec42783          	lw	a5,-20(s0)
    20a4:	00178793          	addi	a5,a5,1
    20a8:	fef42623          	sw	a5,-20(s0)
    20ac:	fec42703          	lw	a4,-20(s0)
    20b0:	fe442783          	lw	a5,-28(s0)
    20b4:	f6e7d2e3          	bge	a5,a4,2018 <cmd_fib+0x144>
    20b8:	00000793          	li	a5,0
    20bc:	02c0006f          	j	20e8 <cmd_fib+0x214>
    20c0:	000fe517          	auipc	a0,0xfe
    20c4:	1ac50513          	addi	a0,a0,428 # 10026c <digit.0+0x26c>
    20c8:	67d000ef          	jal	ra,2f44 <putstr>
    20cc:	ee040793          	addi	a5,s0,-288
    20d0:	00078513          	mv	a0,a5
    20d4:	671000ef          	jal	ra,2f44 <putstr>
    20d8:	000fe517          	auipc	a0,0xfe
    20dc:	1a850513          	addi	a0,a0,424 # 100280 <digit.0+0x280>
    20e0:	665000ef          	jal	ra,2f44 <putstr>
    20e4:	00000793          	li	a5,0
    20e8:	00078513          	mv	a0,a5
    20ec:	14c12083          	lw	ra,332(sp)
    20f0:	14812403          	lw	s0,328(sp)
    20f4:	15010113          	addi	sp,sp,336
    20f8:	00008067          	ret

000020fc <cmd_smile>:
    20fc:	fe010113          	addi	sp,sp,-32
    2100:	00112e23          	sw	ra,28(sp)
    2104:	00812c23          	sw	s0,24(sp)
    2108:	02010413          	addi	s0,sp,32
    210c:	fea42623          	sw	a0,-20(s0)
    2110:	000fe517          	auipc	a0,0xfe
    2114:	17450513          	addi	a0,a0,372 # 100284 <digit.0+0x284>
    2118:	62d000ef          	jal	ra,2f44 <putstr>
    211c:	00000793          	li	a5,0
    2120:	00078513          	mv	a0,a5
    2124:	01c12083          	lw	ra,28(sp)
    2128:	01812403          	lw	s0,24(sp)
    212c:	02010113          	addi	sp,sp,32
    2130:	00008067          	ret

00002134 <cmd_help>:
    2134:	ed010113          	addi	sp,sp,-304
    2138:	12112623          	sw	ra,300(sp)
    213c:	12812423          	sw	s0,296(sp)
    2140:	13010413          	addi	s0,sp,304
    2144:	eca42e23          	sw	a0,-292(s0)
    2148:	f6c40713          	addi	a4,s0,-148
    214c:	eec40793          	addi	a5,s0,-276
    2150:	edc42603          	lw	a2,-292(s0)
    2154:	00070593          	mv	a1,a4
    2158:	00078513          	mv	a0,a5
    215c:	ae5ff0ef          	jal	ra,1c40 <extract_token>
    2160:	eec44783          	lbu	a5,-276(s0)
    2164:	08079a63          	bnez	a5,21f8 <cmd_help+0xc4>
    2168:	fe042623          	sw	zero,-20(s0)
    216c:	07c0006f          	j	21e8 <cmd_help+0xb4>
    2170:	000fe697          	auipc	a3,0xfe
    2174:	51c68693          	addi	a3,a3,1308 # 10068c <cmd_table>
    2178:	fec42703          	lw	a4,-20(s0)
    217c:	00070793          	mv	a5,a4
    2180:	00179793          	slli	a5,a5,0x1
    2184:	00e787b3          	add	a5,a5,a4
    2188:	00279793          	slli	a5,a5,0x2
    218c:	00f687b3          	add	a5,a3,a5
    2190:	0007a783          	lw	a5,0(a5)
    2194:	00078513          	mv	a0,a5
    2198:	5ad000ef          	jal	ra,2f44 <putstr>
    219c:	000fe517          	auipc	a0,0xfe
    21a0:	24c50513          	addi	a0,a0,588 # 1003e8 <digit.0+0x3e8>
    21a4:	5a1000ef          	jal	ra,2f44 <putstr>
    21a8:	000fe697          	auipc	a3,0xfe
    21ac:	4e468693          	addi	a3,a3,1252 # 10068c <cmd_table>
    21b0:	fec42703          	lw	a4,-20(s0)
    21b4:	00070793          	mv	a5,a4
    21b8:	00179793          	slli	a5,a5,0x1
    21bc:	00e787b3          	add	a5,a5,a4
    21c0:	00279793          	slli	a5,a5,0x2
    21c4:	00f687b3          	add	a5,a3,a5
    21c8:	0047a783          	lw	a5,4(a5)
    21cc:	00078513          	mv	a0,a5
    21d0:	575000ef          	jal	ra,2f44 <putstr>
    21d4:	00a00513          	li	a0,10
    21d8:	1b1000ef          	jal	ra,2b88 <putch>
    21dc:	fec42783          	lw	a5,-20(s0)
    21e0:	00178793          	addi	a5,a5,1
    21e4:	fef42623          	sw	a5,-20(s0)
    21e8:	fec42703          	lw	a4,-20(s0)
    21ec:	00700793          	li	a5,7
    21f0:	f8e7d0e3          	bge	a5,a4,2170 <cmd_help+0x3c>
    21f4:	0f80006f          	j	22ec <cmd_help+0x1b8>
    21f8:	fe042623          	sw	zero,-20(s0)
    21fc:	0c00006f          	j	22bc <cmd_help+0x188>
    2200:	000fe697          	auipc	a3,0xfe
    2204:	48c68693          	addi	a3,a3,1164 # 10068c <cmd_table>
    2208:	fec42703          	lw	a4,-20(s0)
    220c:	00070793          	mv	a5,a4
    2210:	00179793          	slli	a5,a5,0x1
    2214:	00e787b3          	add	a5,a5,a4
    2218:	00279793          	slli	a5,a5,0x2
    221c:	00f687b3          	add	a5,a3,a5
    2220:	0007a703          	lw	a4,0(a5)
    2224:	eec40793          	addi	a5,s0,-276
    2228:	00070593          	mv	a1,a4
    222c:	00078513          	mv	a0,a5
    2230:	ce0fe0ef          	jal	ra,710 <strcmp>
    2234:	00050793          	mv	a5,a0
    2238:	06079c63          	bnez	a5,22b0 <cmd_help+0x17c>
    223c:	000fe697          	auipc	a3,0xfe
    2240:	45068693          	addi	a3,a3,1104 # 10068c <cmd_table>
    2244:	fec42703          	lw	a4,-20(s0)
    2248:	00070793          	mv	a5,a4
    224c:	00179793          	slli	a5,a5,0x1
    2250:	00e787b3          	add	a5,a5,a4
    2254:	00279793          	slli	a5,a5,0x2
    2258:	00f687b3          	add	a5,a3,a5
    225c:	0007a783          	lw	a5,0(a5)
    2260:	00078513          	mv	a0,a5
    2264:	4e1000ef          	jal	ra,2f44 <putstr>
    2268:	000fe517          	auipc	a0,0xfe
    226c:	18050513          	addi	a0,a0,384 # 1003e8 <digit.0+0x3e8>
    2270:	4d5000ef          	jal	ra,2f44 <putstr>
    2274:	000fe697          	auipc	a3,0xfe
    2278:	41868693          	addi	a3,a3,1048 # 10068c <cmd_table>
    227c:	fec42703          	lw	a4,-20(s0)
    2280:	00070793          	mv	a5,a4
    2284:	00179793          	slli	a5,a5,0x1
    2288:	00e787b3          	add	a5,a5,a4
    228c:	00279793          	slli	a5,a5,0x2
    2290:	00f687b3          	add	a5,a3,a5
    2294:	0047a783          	lw	a5,4(a5)
    2298:	00078513          	mv	a0,a5
    229c:	4a9000ef          	jal	ra,2f44 <putstr>
    22a0:	00a00513          	li	a0,10
    22a4:	0e5000ef          	jal	ra,2b88 <putch>
    22a8:	00000793          	li	a5,0
    22ac:	0440006f          	j	22f0 <cmd_help+0x1bc>
    22b0:	fec42783          	lw	a5,-20(s0)
    22b4:	00178793          	addi	a5,a5,1
    22b8:	fef42623          	sw	a5,-20(s0)
    22bc:	fec42703          	lw	a4,-20(s0)
    22c0:	00700793          	li	a5,7
    22c4:	f2e7dee3          	bge	a5,a4,2200 <cmd_help+0xcc>
    22c8:	000fe517          	auipc	a0,0xfe
    22cc:	12450513          	addi	a0,a0,292 # 1003ec <digit.0+0x3ec>
    22d0:	475000ef          	jal	ra,2f44 <putstr>
    22d4:	eec40793          	addi	a5,s0,-276
    22d8:	00078513          	mv	a0,a5
    22dc:	469000ef          	jal	ra,2f44 <putstr>
    22e0:	000fe517          	auipc	a0,0xfe
    22e4:	fa050513          	addi	a0,a0,-96 # 100280 <digit.0+0x280>
    22e8:	45d000ef          	jal	ra,2f44 <putstr>
    22ec:	00000793          	li	a5,0
    22f0:	00078513          	mv	a0,a5
    22f4:	12c12083          	lw	ra,300(sp)
    22f8:	12812403          	lw	s0,296(sp)
    22fc:	13010113          	addi	sp,sp,304
    2300:	00008067          	ret

00002304 <sdb_mainloop>:
    2304:	ee010113          	addi	sp,sp,-288
    2308:	10112e23          	sw	ra,284(sp)
    230c:	10812c23          	sw	s0,280(sp)
    2310:	12010413          	addi	s0,sp,288
    2314:	0f80006f          	j	240c <sdb_mainloop+0x108>
    2318:	f6840713          	addi	a4,s0,-152
    231c:	ee840793          	addi	a5,s0,-280
    2320:	fe842603          	lw	a2,-24(s0)
    2324:	00070593          	mv	a1,a4
    2328:	00078513          	mv	a0,a5
    232c:	915ff0ef          	jal	ra,1c40 <extract_token>
    2330:	ee844783          	lbu	a5,-280(s0)
    2334:	00079463          	bnez	a5,233c <sdb_mainloop+0x38>
    2338:	0d40006f          	j	240c <sdb_mainloop+0x108>
    233c:	fe042623          	sw	zero,-20(s0)
    2340:	0880006f          	j	23c8 <sdb_mainloop+0xc4>
    2344:	000fe697          	auipc	a3,0xfe
    2348:	34868693          	addi	a3,a3,840 # 10068c <cmd_table>
    234c:	fec42703          	lw	a4,-20(s0)
    2350:	00070793          	mv	a5,a4
    2354:	00179793          	slli	a5,a5,0x1
    2358:	00e787b3          	add	a5,a5,a4
    235c:	00279793          	slli	a5,a5,0x2
    2360:	00f687b3          	add	a5,a3,a5
    2364:	0007a703          	lw	a4,0(a5)
    2368:	ee840793          	addi	a5,s0,-280
    236c:	00070593          	mv	a1,a4
    2370:	00078513          	mv	a0,a5
    2374:	b9cfe0ef          	jal	ra,710 <strcmp>
    2378:	00050793          	mv	a5,a0
    237c:	04079063          	bnez	a5,23bc <sdb_mainloop+0xb8>
    2380:	000fe697          	auipc	a3,0xfe
    2384:	30c68693          	addi	a3,a3,780 # 10068c <cmd_table>
    2388:	fec42703          	lw	a4,-20(s0)
    238c:	00070793          	mv	a5,a4
    2390:	00179793          	slli	a5,a5,0x1
    2394:	00e787b3          	add	a5,a5,a4
    2398:	00279793          	slli	a5,a5,0x2
    239c:	00f687b3          	add	a5,a3,a5
    23a0:	0087a703          	lw	a4,8(a5)
    23a4:	f6840793          	addi	a5,s0,-152
    23a8:	00078513          	mv	a0,a5
    23ac:	000700e7          	jalr	a4
    23b0:	00050793          	mv	a5,a0
    23b4:	0207d263          	bgez	a5,23d8 <sdb_mainloop+0xd4>
    23b8:	0640006f          	j	241c <sdb_mainloop+0x118>
    23bc:	fec42783          	lw	a5,-20(s0)
    23c0:	00178793          	addi	a5,a5,1
    23c4:	fef42623          	sw	a5,-20(s0)
    23c8:	fec42703          	lw	a4,-20(s0)
    23cc:	00700793          	li	a5,7
    23d0:	f6e7dae3          	bge	a5,a4,2344 <sdb_mainloop+0x40>
    23d4:	0080006f          	j	23dc <sdb_mainloop+0xd8>
    23d8:	00000013          	nop
    23dc:	fec42703          	lw	a4,-20(s0)
    23e0:	00800793          	li	a5,8
    23e4:	02f71463          	bne	a4,a5,240c <sdb_mainloop+0x108>
    23e8:	000fe517          	auipc	a0,0xfe
    23ec:	01c50513          	addi	a0,a0,28 # 100404 <digit.0+0x404>
    23f0:	355000ef          	jal	ra,2f44 <putstr>
    23f4:	ee840793          	addi	a5,s0,-280
    23f8:	00078513          	mv	a0,a5
    23fc:	349000ef          	jal	ra,2f44 <putstr>
    2400:	000fe517          	auipc	a0,0xfe
    2404:	01850513          	addi	a0,a0,24 # 100418 <digit.0+0x418>
    2408:	33d000ef          	jal	ra,2f44 <putstr>
    240c:	931ff0ef          	jal	ra,1d3c <rl_gets>
    2410:	fea42423          	sw	a0,-24(s0)
    2414:	fe842783          	lw	a5,-24(s0)
    2418:	f00790e3          	bnez	a5,2318 <sdb_mainloop+0x14>
    241c:	11c12083          	lw	ra,284(sp)
    2420:	11812403          	lw	s0,280(sp)
    2424:	12010113          	addi	sp,sp,288
    2428:	00008067          	ret

0000242c <ternimal_loop>:
    242c:	ff010113          	addi	sp,sp,-16
    2430:	00112623          	sw	ra,12(sp)
    2434:	00812423          	sw	s0,8(sp)
    2438:	01010413          	addi	s0,sp,16
    243c:	9e5ff0ef          	jal	ra,1e20 <fiball>
    2440:	ec5ff0ef          	jal	ra,2304 <sdb_mainloop>
    2444:	ffdff06f          	j	2440 <ternimal_loop+0x14>

00002448 <wait_line>:
    2448:	fd010113          	addi	sp,sp,-48
    244c:	02112623          	sw	ra,44(sp)
    2450:	02812423          	sw	s0,40(sp)
    2454:	03010413          	addi	s0,sp,48
    2458:	fca42e23          	sw	a0,-36(s0)
    245c:	002007b7          	lui	a5,0x200
    2460:	fef42423          	sw	a5,-24(s0)
    2464:	fe042623          	sw	zero,-20(s0)
    2468:	120000ef          	jal	ra,2588 <wait_keyboard>
    246c:	00050793          	mv	a5,a0
    2470:	fef403a3          	sb	a5,-25(s0)
    2474:	fe744783          	lbu	a5,-25(s0)
    2478:	fe0788e3          	beqz	a5,2468 <wait_line+0x20>
    247c:	fe744783          	lbu	a5,-25(s0)
    2480:	00078513          	mv	a0,a5
    2484:	704000ef          	jal	ra,2b88 <putch>
    2488:	fe744703          	lbu	a4,-25(s0)
    248c:	00a00793          	li	a5,10
    2490:	00f70863          	beq	a4,a5,24a0 <wait_line+0x58>
    2494:	fe744703          	lbu	a4,-25(s0)
    2498:	00d00793          	li	a5,13
    249c:	02f71463          	bne	a4,a5,24c4 <wait_line+0x7c>
    24a0:	fec42783          	lw	a5,-20(s0)
    24a4:	fdc42703          	lw	a4,-36(s0)
    24a8:	00f707b3          	add	a5,a4,a5
    24ac:	00078023          	sb	zero,0(a5) # 200000 <_end+0xfa400>
    24b0:	fec42783          	lw	a5,-20(s0)
    24b4:	00178793          	addi	a5,a5,1
    24b8:	fef42623          	sw	a5,-20(s0)
    24bc:	fec42783          	lw	a5,-20(s0)
    24c0:	05c0006f          	j	251c <wait_line+0xd4>
    24c4:	fe744703          	lbu	a4,-25(s0)
    24c8:	00800793          	li	a5,8
    24cc:	02f71663          	bne	a4,a5,24f8 <wait_line+0xb0>
    24d0:	fec42783          	lw	a5,-20(s0)
    24d4:	f8f05ae3          	blez	a5,2468 <wait_line+0x20>
    24d8:	fec42783          	lw	a5,-20(s0)
    24dc:	fdc42703          	lw	a4,-36(s0)
    24e0:	00f707b3          	add	a5,a4,a5
    24e4:	00078023          	sb	zero,0(a5)
    24e8:	fec42783          	lw	a5,-20(s0)
    24ec:	fff78793          	addi	a5,a5,-1
    24f0:	fef42623          	sw	a5,-20(s0)
    24f4:	f75ff06f          	j	2468 <wait_line+0x20>
    24f8:	fec42783          	lw	a5,-20(s0)
    24fc:	fdc42703          	lw	a4,-36(s0)
    2500:	00f707b3          	add	a5,a4,a5
    2504:	fe744703          	lbu	a4,-25(s0)
    2508:	00e78023          	sb	a4,0(a5)
    250c:	fec42783          	lw	a5,-20(s0)
    2510:	00178793          	addi	a5,a5,1
    2514:	fef42623          	sw	a5,-20(s0)
    2518:	f51ff06f          	j	2468 <wait_line+0x20>
    251c:	00078513          	mv	a0,a5
    2520:	02c12083          	lw	ra,44(sp)
    2524:	02812403          	lw	s0,40(sp)
    2528:	03010113          	addi	sp,sp,48
    252c:	00008067          	ret

00002530 <ptrmov>:
    2530:	ff010113          	addi	sp,sp,-16
    2534:	00812623          	sw	s0,12(sp)
    2538:	01010413          	addi	s0,sp,16
    253c:	000fe797          	auipc	a5,0xfe
    2540:	21478793          	addi	a5,a5,532 # 100750 <queue_front>
    2544:	0007a703          	lw	a4,0(a5)
    2548:	003007b7          	lui	a5,0x300
    254c:	10078793          	addi	a5,a5,256 # 300100 <_end+0x1fa500>
    2550:	00f70c63          	beq	a4,a5,2568 <ptrmov+0x38>
    2554:	000fe797          	auipc	a5,0xfe
    2558:	1fc78793          	addi	a5,a5,508 # 100750 <queue_front>
    255c:	0007a783          	lw	a5,0(a5)
    2560:	00178793          	addi	a5,a5,1
    2564:	0080006f          	j	256c <ptrmov+0x3c>
    2568:	003007b7          	lui	a5,0x300
    256c:	000fe717          	auipc	a4,0xfe
    2570:	1e470713          	addi	a4,a4,484 # 100750 <queue_front>
    2574:	00f72023          	sw	a5,0(a4)
    2578:	00000013          	nop
    257c:	00c12403          	lw	s0,12(sp)
    2580:	01010113          	addi	sp,sp,16
    2584:	00008067          	ret

00002588 <wait_keyboard>:
    2588:	fe010113          	addi	sp,sp,-32
    258c:	00112e23          	sw	ra,28(sp)
    2590:	00812c23          	sw	s0,24(sp)
    2594:	02010413          	addi	s0,sp,32
    2598:	0080006f          	j	25a0 <wait_keyboard+0x18>
    259c:	f95ff0ef          	jal	ra,2530 <ptrmov>
    25a0:	000fe797          	auipc	a5,0xfe
    25a4:	1b078793          	addi	a5,a5,432 # 100750 <queue_front>
    25a8:	0007a783          	lw	a5,0(a5)
    25ac:	0007c783          	lbu	a5,0(a5)
    25b0:	fe0786e3          	beqz	a5,259c <wait_keyboard+0x14>
    25b4:	000fe797          	auipc	a5,0xfe
    25b8:	19c78793          	addi	a5,a5,412 # 100750 <queue_front>
    25bc:	0007a783          	lw	a5,0(a5)
    25c0:	0007c783          	lbu	a5,0(a5)
    25c4:	fef407a3          	sb	a5,-17(s0)
    25c8:	000fe797          	auipc	a5,0xfe
    25cc:	18878793          	addi	a5,a5,392 # 100750 <queue_front>
    25d0:	0007a783          	lw	a5,0(a5)
    25d4:	00078023          	sb	zero,0(a5)
    25d8:	fef44783          	lbu	a5,-17(s0)
    25dc:	00078513          	mv	a0,a5
    25e0:	01c12083          	lw	ra,28(sp)
    25e4:	01812403          	lw	s0,24(sp)
    25e8:	02010113          	addi	sp,sp,32
    25ec:	00008067          	ret

000025f0 <get_keyboard>:
    25f0:	fe010113          	addi	sp,sp,-32
    25f4:	00112e23          	sw	ra,28(sp)
    25f8:	00812c23          	sw	s0,24(sp)
    25fc:	02010413          	addi	s0,sp,32
    2600:	fe042623          	sw	zero,-20(s0)
    2604:	20000793          	li	a5,512
    2608:	fef42423          	sw	a5,-24(s0)
    260c:	0140006f          	j	2620 <get_keyboard+0x30>
    2610:	f21ff0ef          	jal	ra,2530 <ptrmov>
    2614:	fec42783          	lw	a5,-20(s0)
    2618:	00178793          	addi	a5,a5,1
    261c:	fef42623          	sw	a5,-20(s0)
    2620:	000fe797          	auipc	a5,0xfe
    2624:	13078793          	addi	a5,a5,304 # 100750 <queue_front>
    2628:	0007a783          	lw	a5,0(a5)
    262c:	0007c783          	lbu	a5,0(a5)
    2630:	00079863          	bnez	a5,2640 <get_keyboard+0x50>
    2634:	fec42703          	lw	a4,-20(s0)
    2638:	fe842783          	lw	a5,-24(s0)
    263c:	fcf74ae3          	blt	a4,a5,2610 <get_keyboard+0x20>
    2640:	000fe797          	auipc	a5,0xfe
    2644:	11078793          	addi	a5,a5,272 # 100750 <queue_front>
    2648:	0007a783          	lw	a5,0(a5)
    264c:	0007c783          	lbu	a5,0(a5)
    2650:	fef403a3          	sb	a5,-25(s0)
    2654:	000fe797          	auipc	a5,0xfe
    2658:	0fc78793          	addi	a5,a5,252 # 100750 <queue_front>
    265c:	0007a783          	lw	a5,0(a5)
    2660:	00078023          	sb	zero,0(a5)
    2664:	fe744783          	lbu	a5,-25(s0)
    2668:	00078513          	mv	a0,a5
    266c:	01c12083          	lw	ra,28(sp)
    2670:	01812403          	lw	s0,24(sp)
    2674:	02010113          	addi	sp,sp,32
    2678:	00008067          	ret

0000267c <show_cursor>:
    267c:	fe010113          	addi	sp,sp,-32
    2680:	00112e23          	sw	ra,28(sp)
    2684:	00812c23          	sw	s0,24(sp)
    2688:	02010413          	addi	s0,sp,32
    268c:	004007b7          	lui	a5,0x400
    2690:	0007a703          	lw	a4,0(a5) # 400000 <_end+0x2fa400>
    2694:	000fe797          	auipc	a5,0xfe
    2698:	0c078793          	addi	a5,a5,192 # 100754 <flip_interval>
    269c:	0007a783          	lw	a5,0(a5)
    26a0:	00078593          	mv	a1,a5
    26a4:	00070513          	mv	a0,a4
    26a8:	ae1fd0ef          	jal	ra,188 <__udivsi3>
    26ac:	00050793          	mv	a5,a0
    26b0:	fef42623          	sw	a5,-20(s0)
    26b4:	00103797          	auipc	a5,0x103
    26b8:	db478793          	addi	a5,a5,-588 # 105468 <tick_last>
    26bc:	0007a783          	lw	a5,0(a5)
    26c0:	fec42703          	lw	a4,-20(s0)
    26c4:	0ce7f863          	bgeu	a5,a4,2794 <show_cursor+0x118>
    26c8:	fec42783          	lw	a5,-20(s0)
    26cc:	0017f793          	andi	a5,a5,1
    26d0:	fef42423          	sw	a5,-24(s0)
    26d4:	fe842783          	lw	a5,-24(s0)
    26d8:	04079063          	bnez	a5,2718 <show_cursor+0x9c>
    26dc:	000fe797          	auipc	a5,0xfe
    26e0:	07c78793          	addi	a5,a5,124 # 100758 <vga_start>
    26e4:	0007a783          	lw	a5,0(a5)
    26e8:	00103717          	auipc	a4,0x103
    26ec:	d7870713          	addi	a4,a4,-648 # 105460 <vga_line>
    26f0:	00072703          	lw	a4,0(a4)
    26f4:	00771693          	slli	a3,a4,0x7
    26f8:	00103717          	auipc	a4,0x103
    26fc:	d6c70713          	addi	a4,a4,-660 # 105464 <vga_ch>
    2700:	00072703          	lw	a4,0(a4)
    2704:	00e68733          	add	a4,a3,a4
    2708:	00e787b3          	add	a5,a5,a4
    270c:	05f00713          	li	a4,95
    2710:	00e78023          	sb	a4,0(a5)
    2714:	0840006f          	j	2798 <show_cursor+0x11c>
    2718:	00103797          	auipc	a5,0x103
    271c:	d4878793          	addi	a5,a5,-696 # 105460 <vga_line>
    2720:	0007a703          	lw	a4,0(a5)
    2724:	00103797          	auipc	a5,0x103
    2728:	d4078793          	addi	a5,a5,-704 # 105464 <vga_ch>
    272c:	0007a603          	lw	a2,0(a5)
    2730:	000fe797          	auipc	a5,0xfe
    2734:	02878793          	addi	a5,a5,40 # 100758 <vga_start>
    2738:	0007a783          	lw	a5,0(a5)
    273c:	00103697          	auipc	a3,0x103
    2740:	d2468693          	addi	a3,a3,-732 # 105460 <vga_line>
    2744:	0006a683          	lw	a3,0(a3)
    2748:	00769593          	slli	a1,a3,0x7
    274c:	00103697          	auipc	a3,0x103
    2750:	d1868693          	addi	a3,a3,-744 # 105464 <vga_ch>
    2754:	0006a683          	lw	a3,0(a3)
    2758:	00d586b3          	add	a3,a1,a3
    275c:	00d786b3          	add	a3,a5,a3
    2760:	00102597          	auipc	a1,0x102
    2764:	4cc58593          	addi	a1,a1,1228 # 104c2c <backup_screen>
    2768:	00070793          	mv	a5,a4
    276c:	00379793          	slli	a5,a5,0x3
    2770:	00e787b3          	add	a5,a5,a4
    2774:	00279793          	slli	a5,a5,0x2
    2778:	40e787b3          	sub	a5,a5,a4
    277c:	00179793          	slli	a5,a5,0x1
    2780:	00f587b3          	add	a5,a1,a5
    2784:	00c787b3          	add	a5,a5,a2
    2788:	0007c783          	lbu	a5,0(a5)
    278c:	00f68023          	sb	a5,0(a3)
    2790:	0080006f          	j	2798 <show_cursor+0x11c>
    2794:	00000013          	nop
    2798:	01c12083          	lw	ra,28(sp)
    279c:	01812403          	lw	s0,24(sp)
    27a0:	02010113          	addi	sp,sp,32
    27a4:	00008067          	ret

000027a8 <vga_init>:
    27a8:	fe010113          	addi	sp,sp,-32
    27ac:	00812e23          	sw	s0,28(sp)
    27b0:	02010413          	addi	s0,sp,32
    27b4:	00103797          	auipc	a5,0x103
    27b8:	cac78793          	addi	a5,a5,-852 # 105460 <vga_line>
    27bc:	0007a023          	sw	zero,0(a5)
    27c0:	00103797          	auipc	a5,0x103
    27c4:	ca478793          	addi	a5,a5,-860 # 105464 <vga_ch>
    27c8:	0007a023          	sw	zero,0(a5)
    27cc:	fe042623          	sw	zero,-20(s0)
    27d0:	0a00006f          	j	2870 <vga_init+0xc8>
    27d4:	00102717          	auipc	a4,0x102
    27d8:	3e070713          	addi	a4,a4,992 # 104bb4 <charcnt>
    27dc:	fec42783          	lw	a5,-20(s0)
    27e0:	00279793          	slli	a5,a5,0x2
    27e4:	00f707b3          	add	a5,a4,a5
    27e8:	0007a023          	sw	zero,0(a5)
    27ec:	fe042423          	sw	zero,-24(s0)
    27f0:	0680006f          	j	2858 <vga_init+0xb0>
    27f4:	000fe797          	auipc	a5,0xfe
    27f8:	f6478793          	addi	a5,a5,-156 # 100758 <vga_start>
    27fc:	0007a783          	lw	a5,0(a5)
    2800:	fec42703          	lw	a4,-20(s0)
    2804:	00771693          	slli	a3,a4,0x7
    2808:	fe842703          	lw	a4,-24(s0)
    280c:	00e68733          	add	a4,a3,a4
    2810:	00e787b3          	add	a5,a5,a4
    2814:	00078023          	sb	zero,0(a5)
    2818:	00102697          	auipc	a3,0x102
    281c:	41468693          	addi	a3,a3,1044 # 104c2c <backup_screen>
    2820:	fec42703          	lw	a4,-20(s0)
    2824:	00070793          	mv	a5,a4
    2828:	00379793          	slli	a5,a5,0x3
    282c:	00e787b3          	add	a5,a5,a4
    2830:	00279793          	slli	a5,a5,0x2
    2834:	40e787b3          	sub	a5,a5,a4
    2838:	00179793          	slli	a5,a5,0x1
    283c:	00f68733          	add	a4,a3,a5
    2840:	fe842783          	lw	a5,-24(s0)
    2844:	00f707b3          	add	a5,a4,a5
    2848:	00078023          	sb	zero,0(a5)
    284c:	fe842783          	lw	a5,-24(s0)
    2850:	00178793          	addi	a5,a5,1
    2854:	fef42423          	sw	a5,-24(s0)
    2858:	fe842703          	lw	a4,-24(s0)
    285c:	04500793          	li	a5,69
    2860:	f8e7dae3          	bge	a5,a4,27f4 <vga_init+0x4c>
    2864:	fec42783          	lw	a5,-20(s0)
    2868:	00178793          	addi	a5,a5,1
    286c:	fef42623          	sw	a5,-20(s0)
    2870:	fec42703          	lw	a4,-20(s0)
    2874:	01d00793          	li	a5,29
    2878:	f4e7dee3          	bge	a5,a4,27d4 <vga_init+0x2c>
    287c:	00000013          	nop
    2880:	00000013          	nop
    2884:	01c12403          	lw	s0,28(sp)
    2888:	02010113          	addi	sp,sp,32
    288c:	00008067          	ret

00002890 <refresh_screen>:
    2890:	fe010113          	addi	sp,sp,-32
    2894:	00112e23          	sw	ra,28(sp)
    2898:	00812c23          	sw	s0,24(sp)
    289c:	02010413          	addi	s0,sp,32
    28a0:	00103797          	auipc	a5,0x103
    28a4:	bc078793          	addi	a5,a5,-1088 # 105460 <vga_line>
    28a8:	0007a023          	sw	zero,0(a5)
    28ac:	00103797          	auipc	a5,0x103
    28b0:	bb878793          	addi	a5,a5,-1096 # 105464 <vga_ch>
    28b4:	0007a023          	sw	zero,0(a5)
    28b8:	fe042623          	sw	zero,-20(s0)
    28bc:	06c0006f          	j	2928 <refresh_screen+0x98>
    28c0:	fe042423          	sw	zero,-24(s0)
    28c4:	04c0006f          	j	2910 <refresh_screen+0x80>
    28c8:	00102697          	auipc	a3,0x102
    28cc:	36468693          	addi	a3,a3,868 # 104c2c <backup_screen>
    28d0:	fec42703          	lw	a4,-20(s0)
    28d4:	00070793          	mv	a5,a4
    28d8:	00379793          	slli	a5,a5,0x3
    28dc:	00e787b3          	add	a5,a5,a4
    28e0:	00279793          	slli	a5,a5,0x2
    28e4:	40e787b3          	sub	a5,a5,a4
    28e8:	00179793          	slli	a5,a5,0x1
    28ec:	00f68733          	add	a4,a3,a5
    28f0:	fe842783          	lw	a5,-24(s0)
    28f4:	00f707b3          	add	a5,a4,a5
    28f8:	0007c783          	lbu	a5,0(a5)
    28fc:	00078513          	mv	a0,a5
    2900:	51c000ef          	jal	ra,2e1c <bufputch>
    2904:	fe842783          	lw	a5,-24(s0)
    2908:	00178793          	addi	a5,a5,1
    290c:	fef42423          	sw	a5,-24(s0)
    2910:	fe842703          	lw	a4,-24(s0)
    2914:	04500793          	li	a5,69
    2918:	fae7d8e3          	bge	a5,a4,28c8 <refresh_screen+0x38>
    291c:	fec42783          	lw	a5,-20(s0)
    2920:	00178793          	addi	a5,a5,1
    2924:	fef42623          	sw	a5,-20(s0)
    2928:	fec42703          	lw	a4,-20(s0)
    292c:	01d00793          	li	a5,29
    2930:	f8e7d8e3          	bge	a5,a4,28c0 <refresh_screen+0x30>
    2934:	00000013          	nop
    2938:	00000013          	nop
    293c:	01c12083          	lw	ra,28(sp)
    2940:	01812403          	lw	s0,24(sp)
    2944:	02010113          	addi	sp,sp,32
    2948:	00008067          	ret

0000294c <roll_up>:
    294c:	fe010113          	addi	sp,sp,-32
    2950:	00112e23          	sw	ra,28(sp)
    2954:	00812c23          	sw	s0,24(sp)
    2958:	02010413          	addi	s0,sp,32
    295c:	fe042623          	sw	zero,-20(s0)
    2960:	0d00006f          	j	2a30 <roll_up+0xe4>
    2964:	fec42783          	lw	a5,-20(s0)
    2968:	00178793          	addi	a5,a5,1
    296c:	00102717          	auipc	a4,0x102
    2970:	24870713          	addi	a4,a4,584 # 104bb4 <charcnt>
    2974:	00279793          	slli	a5,a5,0x2
    2978:	00f707b3          	add	a5,a4,a5
    297c:	0007a703          	lw	a4,0(a5)
    2980:	00102697          	auipc	a3,0x102
    2984:	23468693          	addi	a3,a3,564 # 104bb4 <charcnt>
    2988:	fec42783          	lw	a5,-20(s0)
    298c:	00279793          	slli	a5,a5,0x2
    2990:	00f687b3          	add	a5,a3,a5
    2994:	00e7a023          	sw	a4,0(a5)
    2998:	fe042423          	sw	zero,-24(s0)
    299c:	07c0006f          	j	2a18 <roll_up+0xcc>
    29a0:	fec42783          	lw	a5,-20(s0)
    29a4:	00178713          	addi	a4,a5,1
    29a8:	00102697          	auipc	a3,0x102
    29ac:	28468693          	addi	a3,a3,644 # 104c2c <backup_screen>
    29b0:	00070793          	mv	a5,a4
    29b4:	00379793          	slli	a5,a5,0x3
    29b8:	00e787b3          	add	a5,a5,a4
    29bc:	00279793          	slli	a5,a5,0x2
    29c0:	40e787b3          	sub	a5,a5,a4
    29c4:	00179793          	slli	a5,a5,0x1
    29c8:	00f68733          	add	a4,a3,a5
    29cc:	fe842783          	lw	a5,-24(s0)
    29d0:	00f707b3          	add	a5,a4,a5
    29d4:	0007c683          	lbu	a3,0(a5)
    29d8:	00102617          	auipc	a2,0x102
    29dc:	25460613          	addi	a2,a2,596 # 104c2c <backup_screen>
    29e0:	fec42703          	lw	a4,-20(s0)
    29e4:	00070793          	mv	a5,a4
    29e8:	00379793          	slli	a5,a5,0x3
    29ec:	00e787b3          	add	a5,a5,a4
    29f0:	00279793          	slli	a5,a5,0x2
    29f4:	40e787b3          	sub	a5,a5,a4
    29f8:	00179793          	slli	a5,a5,0x1
    29fc:	00f60733          	add	a4,a2,a5
    2a00:	fe842783          	lw	a5,-24(s0)
    2a04:	00f707b3          	add	a5,a4,a5
    2a08:	00d78023          	sb	a3,0(a5)
    2a0c:	fe842783          	lw	a5,-24(s0)
    2a10:	00178793          	addi	a5,a5,1
    2a14:	fef42423          	sw	a5,-24(s0)
    2a18:	fe842703          	lw	a4,-24(s0)
    2a1c:	04500793          	li	a5,69
    2a20:	f8e7d0e3          	bge	a5,a4,29a0 <roll_up+0x54>
    2a24:	fec42783          	lw	a5,-20(s0)
    2a28:	00178793          	addi	a5,a5,1
    2a2c:	fef42623          	sw	a5,-20(s0)
    2a30:	fec42703          	lw	a4,-20(s0)
    2a34:	01c00793          	li	a5,28
    2a38:	f2e7d6e3          	bge	a5,a4,2964 <roll_up+0x18>
    2a3c:	fe042223          	sw	zero,-28(s0)
    2a40:	0240006f          	j	2a64 <roll_up+0x118>
    2a44:	00102717          	auipc	a4,0x102
    2a48:	1e870713          	addi	a4,a4,488 # 104c2c <backup_screen>
    2a4c:	fe442783          	lw	a5,-28(s0)
    2a50:	00f707b3          	add	a5,a4,a5
    2a54:	7e078723          	sb	zero,2030(a5)
    2a58:	fe442783          	lw	a5,-28(s0)
    2a5c:	00178793          	addi	a5,a5,1
    2a60:	fef42223          	sw	a5,-28(s0)
    2a64:	fe442703          	lw	a4,-28(s0)
    2a68:	04500793          	li	a5,69
    2a6c:	fce7dce3          	bge	a5,a4,2a44 <roll_up+0xf8>
    2a70:	e21ff0ef          	jal	ra,2890 <refresh_screen>
    2a74:	00103797          	auipc	a5,0x103
    2a78:	9ec78793          	addi	a5,a5,-1556 # 105460 <vga_line>
    2a7c:	01d00713          	li	a4,29
    2a80:	00e7a023          	sw	a4,0(a5)
    2a84:	00103797          	auipc	a5,0x103
    2a88:	9e078793          	addi	a5,a5,-1568 # 105464 <vga_ch>
    2a8c:	0007a023          	sw	zero,0(a5)
    2a90:	00000013          	nop
    2a94:	01c12083          	lw	ra,28(sp)
    2a98:	01812403          	lw	s0,24(sp)
    2a9c:	02010113          	addi	sp,sp,32
    2aa0:	00008067          	ret

00002aa4 <new_line>:
    2aa4:	ff010113          	addi	sp,sp,-16
    2aa8:	00112623          	sw	ra,12(sp)
    2aac:	00812423          	sw	s0,8(sp)
    2ab0:	01010413          	addi	s0,sp,16
    2ab4:	00103797          	auipc	a5,0x103
    2ab8:	9ac78793          	addi	a5,a5,-1620 # 105460 <vga_line>
    2abc:	0007a703          	lw	a4,0(a5)
    2ac0:	01c00793          	li	a5,28
    2ac4:	04e7dc63          	bge	a5,a4,2b1c <new_line+0x78>
    2ac8:	00103797          	auipc	a5,0x103
    2acc:	99c78793          	addi	a5,a5,-1636 # 105464 <vga_ch>
    2ad0:	0007a703          	lw	a4,0(a5)
    2ad4:	00103797          	auipc	a5,0x103
    2ad8:	98c78793          	addi	a5,a5,-1652 # 105460 <vga_line>
    2adc:	0007a783          	lw	a5,0(a5)
    2ae0:	fff70713          	addi	a4,a4,-1
    2ae4:	00102697          	auipc	a3,0x102
    2ae8:	0d068693          	addi	a3,a3,208 # 104bb4 <charcnt>
    2aec:	00279793          	slli	a5,a5,0x2
    2af0:	00f687b3          	add	a5,a3,a5
    2af4:	00e7a023          	sw	a4,0(a5)
    2af8:	e55ff0ef          	jal	ra,294c <roll_up>
    2afc:	00103797          	auipc	a5,0x103
    2b00:	96478793          	addi	a5,a5,-1692 # 105460 <vga_line>
    2b04:	01d00713          	li	a4,29
    2b08:	00e7a023          	sw	a4,0(a5)
    2b0c:	00103797          	auipc	a5,0x103
    2b10:	95878793          	addi	a5,a5,-1704 # 105464 <vga_ch>
    2b14:	0007a023          	sw	zero,0(a5)
    2b18:	0600006f          	j	2b78 <new_line+0xd4>
    2b1c:	00103797          	auipc	a5,0x103
    2b20:	94878793          	addi	a5,a5,-1720 # 105464 <vga_ch>
    2b24:	0007a703          	lw	a4,0(a5)
    2b28:	00103797          	auipc	a5,0x103
    2b2c:	93878793          	addi	a5,a5,-1736 # 105460 <vga_line>
    2b30:	0007a783          	lw	a5,0(a5)
    2b34:	fff70713          	addi	a4,a4,-1
    2b38:	00102697          	auipc	a3,0x102
    2b3c:	07c68693          	addi	a3,a3,124 # 104bb4 <charcnt>
    2b40:	00279793          	slli	a5,a5,0x2
    2b44:	00f687b3          	add	a5,a3,a5
    2b48:	00e7a023          	sw	a4,0(a5)
    2b4c:	00103797          	auipc	a5,0x103
    2b50:	91478793          	addi	a5,a5,-1772 # 105460 <vga_line>
    2b54:	0007a783          	lw	a5,0(a5)
    2b58:	00178713          	addi	a4,a5,1
    2b5c:	00103797          	auipc	a5,0x103
    2b60:	90478793          	addi	a5,a5,-1788 # 105460 <vga_line>
    2b64:	00e7a023          	sw	a4,0(a5)
    2b68:	00103797          	auipc	a5,0x103
    2b6c:	8fc78793          	addi	a5,a5,-1796 # 105464 <vga_ch>
    2b70:	0007a023          	sw	zero,0(a5)
    2b74:	00000013          	nop
    2b78:	00c12083          	lw	ra,12(sp)
    2b7c:	00812403          	lw	s0,8(sp)
    2b80:	01010113          	addi	sp,sp,16
    2b84:	00008067          	ret

00002b88 <putch>:
    2b88:	fe010113          	addi	sp,sp,-32
    2b8c:	00112e23          	sw	ra,28(sp)
    2b90:	00812c23          	sw	s0,24(sp)
    2b94:	02010413          	addi	s0,sp,32
    2b98:	00050793          	mv	a5,a0
    2b9c:	fef407a3          	sb	a5,-17(s0)
    2ba0:	fef44703          	lbu	a4,-17(s0)
    2ba4:	00800793          	li	a5,8
    2ba8:	18f71063          	bne	a4,a5,2d28 <putch+0x1a0>
    2bac:	00103797          	auipc	a5,0x103
    2bb0:	8b878793          	addi	a5,a5,-1864 # 105464 <vga_ch>
    2bb4:	0007a783          	lw	a5,0(a5)
    2bb8:	0c079c63          	bnez	a5,2c90 <putch+0x108>
    2bbc:	00103797          	auipc	a5,0x103
    2bc0:	8a478793          	addi	a5,a5,-1884 # 105460 <vga_line>
    2bc4:	0007a783          	lw	a5,0(a5)
    2bc8:	22f05c63          	blez	a5,2e00 <putch+0x278>
    2bcc:	00103797          	auipc	a5,0x103
    2bd0:	89478793          	addi	a5,a5,-1900 # 105460 <vga_line>
    2bd4:	0007a783          	lw	a5,0(a5)
    2bd8:	fff78713          	addi	a4,a5,-1
    2bdc:	00103797          	auipc	a5,0x103
    2be0:	88478793          	addi	a5,a5,-1916 # 105460 <vga_line>
    2be4:	00e7a023          	sw	a4,0(a5)
    2be8:	00103797          	auipc	a5,0x103
    2bec:	87878793          	addi	a5,a5,-1928 # 105460 <vga_line>
    2bf0:	0007a783          	lw	a5,0(a5)
    2bf4:	00102717          	auipc	a4,0x102
    2bf8:	fc070713          	addi	a4,a4,-64 # 104bb4 <charcnt>
    2bfc:	00279793          	slli	a5,a5,0x2
    2c00:	00f707b3          	add	a5,a4,a5
    2c04:	0007a703          	lw	a4,0(a5)
    2c08:	00103797          	auipc	a5,0x103
    2c0c:	85c78793          	addi	a5,a5,-1956 # 105464 <vga_ch>
    2c10:	00e7a023          	sw	a4,0(a5)
    2c14:	000fe797          	auipc	a5,0xfe
    2c18:	b4478793          	addi	a5,a5,-1212 # 100758 <vga_start>
    2c1c:	0007a783          	lw	a5,0(a5)
    2c20:	00103717          	auipc	a4,0x103
    2c24:	84070713          	addi	a4,a4,-1984 # 105460 <vga_line>
    2c28:	00072703          	lw	a4,0(a4)
    2c2c:	00771693          	slli	a3,a4,0x7
    2c30:	00103717          	auipc	a4,0x103
    2c34:	83470713          	addi	a4,a4,-1996 # 105464 <vga_ch>
    2c38:	00072703          	lw	a4,0(a4)
    2c3c:	00e68733          	add	a4,a3,a4
    2c40:	00e787b3          	add	a5,a5,a4
    2c44:	00078023          	sb	zero,0(a5)
    2c48:	00103797          	auipc	a5,0x103
    2c4c:	81878793          	addi	a5,a5,-2024 # 105460 <vga_line>
    2c50:	0007a703          	lw	a4,0(a5)
    2c54:	00103797          	auipc	a5,0x103
    2c58:	81078793          	addi	a5,a5,-2032 # 105464 <vga_ch>
    2c5c:	0007a683          	lw	a3,0(a5)
    2c60:	00102617          	auipc	a2,0x102
    2c64:	fcc60613          	addi	a2,a2,-52 # 104c2c <backup_screen>
    2c68:	00070793          	mv	a5,a4
    2c6c:	00379793          	slli	a5,a5,0x3
    2c70:	00e787b3          	add	a5,a5,a4
    2c74:	00279793          	slli	a5,a5,0x2
    2c78:	40e787b3          	sub	a5,a5,a4
    2c7c:	00179793          	slli	a5,a5,0x1
    2c80:	00f607b3          	add	a5,a2,a5
    2c84:	00d787b3          	add	a5,a5,a3
    2c88:	00078023          	sb	zero,0(a5)
    2c8c:	1740006f          	j	2e00 <putch+0x278>
    2c90:	00102797          	auipc	a5,0x102
    2c94:	7d478793          	addi	a5,a5,2004 # 105464 <vga_ch>
    2c98:	0007a783          	lw	a5,0(a5)
    2c9c:	fff78713          	addi	a4,a5,-1
    2ca0:	00102797          	auipc	a5,0x102
    2ca4:	7c478793          	addi	a5,a5,1988 # 105464 <vga_ch>
    2ca8:	00e7a023          	sw	a4,0(a5)
    2cac:	000fe797          	auipc	a5,0xfe
    2cb0:	aac78793          	addi	a5,a5,-1364 # 100758 <vga_start>
    2cb4:	0007a783          	lw	a5,0(a5)
    2cb8:	00102717          	auipc	a4,0x102
    2cbc:	7a870713          	addi	a4,a4,1960 # 105460 <vga_line>
    2cc0:	00072703          	lw	a4,0(a4)
    2cc4:	00771693          	slli	a3,a4,0x7
    2cc8:	00102717          	auipc	a4,0x102
    2ccc:	79c70713          	addi	a4,a4,1948 # 105464 <vga_ch>
    2cd0:	00072703          	lw	a4,0(a4)
    2cd4:	00e68733          	add	a4,a3,a4
    2cd8:	00e787b3          	add	a5,a5,a4
    2cdc:	00078023          	sb	zero,0(a5)
    2ce0:	00102797          	auipc	a5,0x102
    2ce4:	78078793          	addi	a5,a5,1920 # 105460 <vga_line>
    2ce8:	0007a703          	lw	a4,0(a5)
    2cec:	00102797          	auipc	a5,0x102
    2cf0:	77878793          	addi	a5,a5,1912 # 105464 <vga_ch>
    2cf4:	0007a683          	lw	a3,0(a5)
    2cf8:	00102617          	auipc	a2,0x102
    2cfc:	f3460613          	addi	a2,a2,-204 # 104c2c <backup_screen>
    2d00:	00070793          	mv	a5,a4
    2d04:	00379793          	slli	a5,a5,0x3
    2d08:	00e787b3          	add	a5,a5,a4
    2d0c:	00279793          	slli	a5,a5,0x2
    2d10:	40e787b3          	sub	a5,a5,a4
    2d14:	00179793          	slli	a5,a5,0x1
    2d18:	00f607b3          	add	a5,a2,a5
    2d1c:	00d787b3          	add	a5,a5,a3
    2d20:	00078023          	sb	zero,0(a5)
    2d24:	0dc0006f          	j	2e00 <putch+0x278>
    2d28:	fef44703          	lbu	a4,-17(s0)
    2d2c:	00a00793          	li	a5,10
    2d30:	00f70863          	beq	a4,a5,2d40 <putch+0x1b8>
    2d34:	fef44703          	lbu	a4,-17(s0)
    2d38:	00d00793          	li	a5,13
    2d3c:	00f71663          	bne	a4,a5,2d48 <putch+0x1c0>
    2d40:	d65ff0ef          	jal	ra,2aa4 <new_line>
    2d44:	0c80006f          	j	2e0c <putch+0x284>
    2d48:	000fe797          	auipc	a5,0xfe
    2d4c:	a1078793          	addi	a5,a5,-1520 # 100758 <vga_start>
    2d50:	0007a783          	lw	a5,0(a5)
    2d54:	00102717          	auipc	a4,0x102
    2d58:	70c70713          	addi	a4,a4,1804 # 105460 <vga_line>
    2d5c:	00072703          	lw	a4,0(a4)
    2d60:	00771693          	slli	a3,a4,0x7
    2d64:	00102717          	auipc	a4,0x102
    2d68:	70070713          	addi	a4,a4,1792 # 105464 <vga_ch>
    2d6c:	00072703          	lw	a4,0(a4)
    2d70:	00e68733          	add	a4,a3,a4
    2d74:	00e787b3          	add	a5,a5,a4
    2d78:	fef44703          	lbu	a4,-17(s0)
    2d7c:	00e78023          	sb	a4,0(a5)
    2d80:	00102797          	auipc	a5,0x102
    2d84:	6e078793          	addi	a5,a5,1760 # 105460 <vga_line>
    2d88:	0007a703          	lw	a4,0(a5)
    2d8c:	00102797          	auipc	a5,0x102
    2d90:	6d878793          	addi	a5,a5,1752 # 105464 <vga_ch>
    2d94:	0007a683          	lw	a3,0(a5)
    2d98:	00102617          	auipc	a2,0x102
    2d9c:	e9460613          	addi	a2,a2,-364 # 104c2c <backup_screen>
    2da0:	00070793          	mv	a5,a4
    2da4:	00379793          	slli	a5,a5,0x3
    2da8:	00e787b3          	add	a5,a5,a4
    2dac:	00279793          	slli	a5,a5,0x2
    2db0:	40e787b3          	sub	a5,a5,a4
    2db4:	00179793          	slli	a5,a5,0x1
    2db8:	00f607b3          	add	a5,a2,a5
    2dbc:	00d787b3          	add	a5,a5,a3
    2dc0:	fef44703          	lbu	a4,-17(s0)
    2dc4:	00e78023          	sb	a4,0(a5)
    2dc8:	00102797          	auipc	a5,0x102
    2dcc:	69c78793          	addi	a5,a5,1692 # 105464 <vga_ch>
    2dd0:	0007a783          	lw	a5,0(a5)
    2dd4:	00178713          	addi	a4,a5,1
    2dd8:	00102797          	auipc	a5,0x102
    2ddc:	68c78793          	addi	a5,a5,1676 # 105464 <vga_ch>
    2de0:	00e7a023          	sw	a4,0(a5)
    2de4:	00102797          	auipc	a5,0x102
    2de8:	68078793          	addi	a5,a5,1664 # 105464 <vga_ch>
    2dec:	0007a703          	lw	a4,0(a5)
    2df0:	04500793          	li	a5,69
    2df4:	00e7da63          	bge	a5,a4,2e08 <putch+0x280>
    2df8:	cadff0ef          	jal	ra,2aa4 <new_line>
    2dfc:	00c0006f          	j	2e08 <putch+0x280>
    2e00:	00000013          	nop
    2e04:	0080006f          	j	2e0c <putch+0x284>
    2e08:	00000013          	nop
    2e0c:	01c12083          	lw	ra,28(sp)
    2e10:	01812403          	lw	s0,24(sp)
    2e14:	02010113          	addi	sp,sp,32
    2e18:	00008067          	ret

00002e1c <bufputch>:
    2e1c:	fe010113          	addi	sp,sp,-32
    2e20:	00812e23          	sw	s0,28(sp)
    2e24:	02010413          	addi	s0,sp,32
    2e28:	00050793          	mv	a5,a0
    2e2c:	fef407a3          	sb	a5,-17(s0)
    2e30:	000fe797          	auipc	a5,0xfe
    2e34:	92878793          	addi	a5,a5,-1752 # 100758 <vga_start>
    2e38:	0007a783          	lw	a5,0(a5)
    2e3c:	00102717          	auipc	a4,0x102
    2e40:	62470713          	addi	a4,a4,1572 # 105460 <vga_line>
    2e44:	00072703          	lw	a4,0(a4)
    2e48:	00771693          	slli	a3,a4,0x7
    2e4c:	00102717          	auipc	a4,0x102
    2e50:	61870713          	addi	a4,a4,1560 # 105464 <vga_ch>
    2e54:	00072703          	lw	a4,0(a4)
    2e58:	00e68733          	add	a4,a3,a4
    2e5c:	00e787b3          	add	a5,a5,a4
    2e60:	fef44703          	lbu	a4,-17(s0)
    2e64:	00e78023          	sb	a4,0(a5)
    2e68:	00102797          	auipc	a5,0x102
    2e6c:	5f878793          	addi	a5,a5,1528 # 105460 <vga_line>
    2e70:	0007a703          	lw	a4,0(a5)
    2e74:	00102797          	auipc	a5,0x102
    2e78:	5f078793          	addi	a5,a5,1520 # 105464 <vga_ch>
    2e7c:	0007a683          	lw	a3,0(a5)
    2e80:	00102617          	auipc	a2,0x102
    2e84:	dac60613          	addi	a2,a2,-596 # 104c2c <backup_screen>
    2e88:	00070793          	mv	a5,a4
    2e8c:	00379793          	slli	a5,a5,0x3
    2e90:	00e787b3          	add	a5,a5,a4
    2e94:	00279793          	slli	a5,a5,0x2
    2e98:	40e787b3          	sub	a5,a5,a4
    2e9c:	00179793          	slli	a5,a5,0x1
    2ea0:	00f607b3          	add	a5,a2,a5
    2ea4:	00d787b3          	add	a5,a5,a3
    2ea8:	fef44703          	lbu	a4,-17(s0)
    2eac:	00e78023          	sb	a4,0(a5)
    2eb0:	00102797          	auipc	a5,0x102
    2eb4:	5b478793          	addi	a5,a5,1460 # 105464 <vga_ch>
    2eb8:	0007a783          	lw	a5,0(a5)
    2ebc:	00178713          	addi	a4,a5,1
    2ec0:	00102797          	auipc	a5,0x102
    2ec4:	5a478793          	addi	a5,a5,1444 # 105464 <vga_ch>
    2ec8:	00e7a023          	sw	a4,0(a5)
    2ecc:	00102797          	auipc	a5,0x102
    2ed0:	59878793          	addi	a5,a5,1432 # 105464 <vga_ch>
    2ed4:	0007a703          	lw	a4,0(a5)
    2ed8:	04500793          	li	a5,69
    2edc:	04e7dc63          	bge	a5,a4,2f34 <bufputch+0x118>
    2ee0:	00102797          	auipc	a5,0x102
    2ee4:	58478793          	addi	a5,a5,1412 # 105464 <vga_ch>
    2ee8:	0007a783          	lw	a5,0(a5)
    2eec:	fff78713          	addi	a4,a5,-1
    2ef0:	00102797          	auipc	a5,0x102
    2ef4:	57478793          	addi	a5,a5,1396 # 105464 <vga_ch>
    2ef8:	00e7a023          	sw	a4,0(a5)
    2efc:	00102797          	auipc	a5,0x102
    2f00:	56478793          	addi	a5,a5,1380 # 105460 <vga_line>
    2f04:	0007a783          	lw	a5,0(a5)
    2f08:	01c00713          	li	a4,28
    2f0c:	00f75463          	bge	a4,a5,2f14 <bufputch+0xf8>
    2f10:	01c00793          	li	a5,28
    2f14:	00178713          	addi	a4,a5,1
    2f18:	00102797          	auipc	a5,0x102
    2f1c:	54878793          	addi	a5,a5,1352 # 105460 <vga_line>
    2f20:	00e7a023          	sw	a4,0(a5)
    2f24:	00102797          	auipc	a5,0x102
    2f28:	54078793          	addi	a5,a5,1344 # 105464 <vga_ch>
    2f2c:	0007a023          	sw	zero,0(a5)
    2f30:	00000013          	nop
    2f34:	00000013          	nop
    2f38:	01c12403          	lw	s0,28(sp)
    2f3c:	02010113          	addi	sp,sp,32
    2f40:	00008067          	ret

00002f44 <putstr>:
    2f44:	fd010113          	addi	sp,sp,-48
    2f48:	02112623          	sw	ra,44(sp)
    2f4c:	02812423          	sw	s0,40(sp)
    2f50:	03010413          	addi	s0,sp,48
    2f54:	fca42e23          	sw	a0,-36(s0)
    2f58:	fdc42783          	lw	a5,-36(s0)
    2f5c:	fef42623          	sw	a5,-20(s0)
    2f60:	0200006f          	j	2f80 <putstr+0x3c>
    2f64:	fec42783          	lw	a5,-20(s0)
    2f68:	0007c783          	lbu	a5,0(a5)
    2f6c:	00078513          	mv	a0,a5
    2f70:	c19ff0ef          	jal	ra,2b88 <putch>
    2f74:	fec42783          	lw	a5,-20(s0)
    2f78:	00178793          	addi	a5,a5,1
    2f7c:	fef42623          	sw	a5,-20(s0)
    2f80:	fec42783          	lw	a5,-20(s0)
    2f84:	0007c783          	lbu	a5,0(a5)
    2f88:	fc079ee3          	bnez	a5,2f64 <putstr+0x20>
    2f8c:	00000013          	nop
    2f90:	00000013          	nop
    2f94:	02c12083          	lw	ra,44(sp)
    2f98:	02812403          	lw	s0,40(sp)
    2f9c:	03010113          	addi	sp,sp,48
    2fa0:	00008067          	ret

Disassembly of section .data:

0010043c <logo>:
  10043c:	3838                	fld	fa4,112(s0)
  10043e:	6238                	flw	fa4,64(a2)
  100440:	2020                	fld	fs0,64(s0)
  100442:	2020                	fld	fs0,64(s0)
  100444:	3838                	fld	fa4,112(s0)
  100446:	3838                	fld	fa4,112(s0)
  100448:	3838                	fld	fa4,112(s0)
  10044a:	3838                	fld	fa4,112(s0)
  10044c:	3838                	fld	fa4,112(s0)
  10044e:	3838                	fld	fa4,112(s0)
  100450:	2020                	fld	fs0,64(s0)
  100452:	2020                	fld	fs0,64(s0)
  100454:	3820                	fld	fs0,112(s0)
  100456:	3838                	fld	fa4,112(s0)
  100458:	2e20                	fld	fs0,88(a2)
  10045a:	3864                	fld	fs1,240(s0)
  10045c:	3838                	fld	fa4,112(s0)
  10045e:	6238                	flw	fa4,64(a2)
  100460:	202e                	fld	ft0,200(sp)
  100462:	2e20                	fld	fs0,88(a2)
  100464:	3864                	fld	fs1,240(s0)
  100466:	3838                	fld	fa4,112(s0)
  100468:	6238                	flw	fa4,64(a2)
  10046a:	202e                	fld	ft0,200(sp)
  10046c:	3800                	fld	fs0,48(s0)
  10046e:	3838                	fld	fa4,112(s0)
  100470:	6238                	flw	fa4,64(a2)
  100472:	2020                	fld	fs0,64(s0)
  100474:	3820                	fld	fs0,112(s0)
  100476:	3838                	fld	fa4,112(s0)
  100478:	2020                	fld	fs0,64(s0)
  10047a:	3822                	fld	fa6,40(sp)
  10047c:	6238                	flw	fa4,64(a2)
  10047e:	3838                	fld	fa4,112(s0)
  100480:	2038                	fld	fa4,64(s0)
  100482:	2020                	fld	fs0,64(s0)
  100484:	2020                	fld	fs0,64(s0)
  100486:	3838                	fld	fa4,112(s0)
  100488:	6438                	flw	fa4,72(s0)
  10048a:	3838                	fld	fa4,112(s0)
  10048c:	2050                	fld	fa2,128(s0)
  10048e:	5920                	lw	s0,112(a0)
  100490:	3838                	fld	fa4,112(s0)
  100492:	6462                	flw	fs0,24(sp)
  100494:	3838                	fld	fa4,112(s0)
  100496:	2050                	fld	fa2,128(s0)
  100498:	5920                	lw	s0,112(a0)
  10049a:	3838                	fld	fa4,112(s0)
  10049c:	0062                	c.slli	zero,0x18
  10049e:	3838                	fld	fa4,112(s0)
  1004a0:	3838                	fld	fa4,112(s0)
  1004a2:	6238                	flw	fa4,64(a2)
  1004a4:	2020                	fld	fs0,64(s0)
  1004a6:	3838                	fld	fa4,112(s0)
  1004a8:	2038                	fld	fa4,64(s0)
  1004aa:	2020                	fld	fs0,64(s0)
  1004ac:	3838                	fld	fa4,112(s0)
  1004ae:	3838                	fld	fa4,112(s0)
  1004b0:	3838                	fld	fa4,112(s0)
  1004b2:	2020                	fld	fs0,64(s0)
  1004b4:	2020                	fld	fs0,64(s0)
  1004b6:	3820                	fld	fs0,112(s0)
  1004b8:	3838                	fld	fa4,112(s0)
  1004ba:	3838                	fld	fa4,112(s0)
  1004bc:	2038                	fld	fa4,64(s0)
  1004be:	2020                	fld	fs0,64(s0)
  1004c0:	3820                	fld	fs0,112(s0)
  1004c2:	3838                	fld	fa4,112(s0)
  1004c4:	3859                	jal	ffd5a <_etext+0xfcdb6>
  1004c6:	6238                	flw	fa4,64(a2)
  1004c8:	202e                	fld	ft0,200(sp)
  1004ca:	2020                	fld	fs0,64(s0)
  1004cc:	2020                	fld	fs0,64(s0)
  1004ce:	3800                	fld	fs0,48(s0)
  1004d0:	3838                	fld	fa4,112(s0)
  1004d2:	3859                	jal	ffd68 <_etext+0xfcdc4>
  1004d4:	6238                	flw	fa4,64(a2)
  1004d6:	3820                	fld	fs0,112(s0)
  1004d8:	3838                	fld	fa4,112(s0)
  1004da:	2020                	fld	fs0,64(s0)
  1004dc:	3820                	fld	fs0,112(s0)
  1004de:	3838                	fld	fa4,112(s0)
  1004e0:	3838                	fld	fa4,112(s0)
  1004e2:	2038                	fld	fa4,64(s0)
  1004e4:	2020                	fld	fs0,64(s0)
  1004e6:	2020                	fld	fs0,64(s0)
  1004e8:	3838                	fld	fa4,112(s0)
  1004ea:	3838                	fld	fa4,112(s0)
  1004ec:	3838                	fld	fa4,112(s0)
  1004ee:	2020                	fld	fs0,64(s0)
  1004f0:	2020                	fld	fs0,64(s0)
  1004f2:	2020                	fld	fs0,64(s0)
  1004f4:	2020                	fld	fs0,64(s0)
  1004f6:	5922                	lw	s2,40(sp)
  1004f8:	3838                	fld	fa4,112(s0)
  1004fa:	6238                	flw	fa4,64(a2)
  1004fc:	202e                	fld	ft0,200(sp)
  1004fe:	0020                	addi	s0,sp,8
  100500:	3838                	fld	fa4,112(s0)
  100502:	2038                	fld	fa4,64(s0)
  100504:	3859                	jal	ffd9a <_etext+0xfcdf6>
  100506:	6238                	flw	fa4,64(a2)
  100508:	3838                	fld	fa4,112(s0)
  10050a:	2038                	fld	fa4,64(s0)
  10050c:	2020                	fld	fs0,64(s0)
  10050e:	3838                	fld	fa4,112(s0)
  100510:	3838                	fld	fa4,112(s0)
  100512:	3838                	fld	fa4,112(s0)
  100514:	2020                	fld	fs0,64(s0)
  100516:	2020                	fld	fs0,64(s0)
  100518:	3820                	fld	fs0,112(s0)
  10051a:	3838                	fld	fa4,112(s0)
  10051c:	3838                	fld	fa4,112(s0)
  10051e:	2038                	fld	fa4,64(s0)
  100520:	2020                	fld	fs0,64(s0)
  100522:	2020                	fld	fs0,64(s0)
  100524:	2020                	fld	fs0,64(s0)
  100526:	2020                	fld	fs0,64(s0)
  100528:	2020                	fld	fs0,64(s0)
  10052a:	5922                	lw	s2,40(sp)
  10052c:	3838                	fld	fa4,112(s0)
  10052e:	2e62                	fld	ft8,24(sp)
  100530:	3800                	fld	fs0,48(s0)
  100532:	3838                	fld	fa4,112(s0)
  100534:	2020                	fld	fs0,64(s0)
  100536:	3859                	jal	ffdcc <_etext+0xfce28>
  100538:	3838                	fld	fa4,112(s0)
  10053a:	3838                	fld	fa4,112(s0)
  10053c:	2020                	fld	fs0,64(s0)
  10053e:	3820                	fld	fs0,112(s0)
  100540:	3838                	fld	fa4,112(s0)
  100542:	3838                	fld	fa4,112(s0)
  100544:	2038                	fld	fa4,64(s0)
  100546:	2020                	fld	fs0,64(s0)
  100548:	2020                	fld	fs0,64(s0)
  10054a:	3838                	fld	fa4,112(s0)
  10054c:	3838                	fld	fa4,112(s0)
  10054e:	3838                	fld	fa4,112(s0)
  100550:	2020                	fld	fs0,64(s0)
  100552:	2020                	fld	fs0,64(s0)
  100554:	3838                	fld	fa4,112(s0)
  100556:	2038                	fld	fa4,64(s0)
  100558:	2020                	fld	fs0,64(s0)
  10055a:	2020                	fld	fs0,64(s0)
  10055c:	2220                	fld	fs0,64(a2)
  10055e:	3838                	fld	fa4,112(s0)
  100560:	0038                	addi	a4,sp,8
  100562:	3838                	fld	fa4,112(s0)
  100564:	2038                	fld	fa4,64(s0)
  100566:	2020                	fld	fs0,64(s0)
  100568:	3859                	jal	ffdfe <_etext+0xfce5a>
  10056a:	3838                	fld	fa4,112(s0)
  10056c:	2038                	fld	fa4,64(s0)
  10056e:	2020                	fld	fs0,64(s0)
  100570:	3838                	fld	fa4,112(s0)
  100572:	5950                	lw	a2,52(a0)
  100574:	3838                	fld	fa4,112(s0)
  100576:	2e62                	fld	ft8,24(sp)
  100578:	2e20                	fld	fs0,88(a2)
  10057a:	3864                	fld	fs1,240(s0)
  10057c:	5038                	lw	a4,96(s0)
  10057e:	3859                	jal	ffe14 <_etext+0xfce70>
  100580:	6238                	flw	fa4,64(a2)
  100582:	2020                	fld	fs0,64(s0)
  100584:	3864                	fld	fs1,240(s0)
  100586:	5038                	lw	a4,96(s0)
  100588:	3859                	jal	ffe1e <_etext+0xfce7a>
  10058a:	6238                	flw	fa4,64(a2)
  10058c:	2020                	fld	fs0,64(s0)
  10058e:	3864                	fld	fs1,240(s0)
  100590:	5038                	lw	a4,96(s0)
  100592:	3800                	fld	fs0,48(s0)
  100594:	3838                	fld	fa4,112(s0)
  100596:	2020                	fld	fs0,64(s0)
  100598:	2020                	fld	fs0,64(s0)
  10059a:	3859                	jal	ffe30 <_etext+0xfce8c>
  10059c:	3838                	fld	fa4,112(s0)
  10059e:	2020                	fld	fs0,64(s0)
  1005a0:	3820                	fld	fs0,112(s0)
  1005a2:	3838                	fld	fa4,112(s0)
  1005a4:	2220                	fld	fs0,64(a2)
  1005a6:	3859                	jal	ffe3c <_etext+0xfce98>
  1005a8:	3838                	fld	fa4,112(s0)
  1005aa:	3838                	fld	fa4,112(s0)
  1005ac:	2250                	fld	fa2,128(a2)
  1005ae:	2020                	fld	fs0,64(s0)
  1005b0:	5922                	lw	s2,40(sp)
  1005b2:	3838                	fld	fa4,112(s0)
  1005b4:	3838                	fld	fa4,112(s0)
  1005b6:	2250                	fld	fa2,128(a2)
  1005b8:	2020                	fld	fs0,64(s0)
  1005ba:	5922                	lw	s2,40(sp)
  1005bc:	3838                	fld	fa4,112(s0)
  1005be:	3838                	fld	fa4,112(s0)
  1005c0:	2250                	fld	fa2,128(a2)
  1005c2:	0020                	addi	s0,sp,8
  1005c4:	2020                	fld	fs0,64(s0)
  1005c6:	2020                	fld	fs0,64(s0)
  1005c8:	2020                	fld	fs0,64(s0)
  1005ca:	2020                	fld	fs0,64(s0)
  1005cc:	2020                	fld	fs0,64(s0)
  1005ce:	2020                	fld	fs0,64(s0)
  1005d0:	642e                	flw	fs0,200(sp)
  1005d2:	3838                	fld	fa4,112(s0)
  1005d4:	2050                	fld	fa2,128(s0)
  1005d6:	2020                	fld	fs0,64(s0)
  1005d8:	2020                	fld	fs0,64(s0)
  1005da:	2020                	fld	fs0,64(s0)
  1005dc:	2020                	fld	fs0,64(s0)
  1005de:	2020                	fld	fs0,64(s0)
  1005e0:	2020                	fld	fs0,64(s0)
  1005e2:	2020                	fld	fs0,64(s0)
  1005e4:	2020                	fld	fs0,64(s0)
  1005e6:	2020                	fld	fs0,64(s0)
  1005e8:	2020                	fld	fs0,64(s0)
  1005ea:	2020                	fld	fs0,64(s0)
  1005ec:	2020                	fld	fs0,64(s0)
  1005ee:	2020                	fld	fs0,64(s0)
  1005f0:	2020                	fld	fs0,64(s0)
  1005f2:	2020                	fld	fs0,64(s0)
  1005f4:	5700                	lw	s0,40(a4)
  1005f6:	6c65                	lui	s8,0x19
  1005f8:	656d6f63          	bltu	s10,s6,100c56 <backup_screen+0x4fa>
  1005fc:	7420                	flw	fs0,104(s0)
  1005fe:	38642e6f          	jal	t3,142984 <_end+0x3cd84>
  100602:	5038                	lw	a4,96(s0)
  100604:	2022                	fld	ft0,8(sp)
  100606:	4320                	lw	s0,64(a4)
  100608:	75706d6f          	jal	s10,10755e <_end+0x195e>
  10060c:	6574                	flw	fa3,76(a0)
  10060e:	2072                	fld	ft0,280(sp)
  100610:	74737953          	0x74737953
  100614:	6d65                	lui	s10,0x19
  100616:	6320                	flw	fs0,64(a4)
  100618:	6572                	flw	fa0,28(sp)
  10061a:	7461                	lui	s0,0xffff8
  10061c:	6465                	lui	s0,0x19
  10061e:	6220                	flw	fs0,64(a2)
  100620:	2079                	jal	1006ae <cmd_table+0x22>
  100622:	00717973          	csrrci	s2,0x7,2
  100626:	2020                	fld	fs0,64(s0)
  100628:	7420                	flw	fs0,104(s0)
  10062a:	6568                	flw	fa0,76(a0)
  10062c:	2020                	fld	fs0,64(s0)
  10062e:	3820                	fld	fs0,112(s0)
  100630:	3838                	fld	fa4,112(s0)
  100632:	2250                	fld	fa2,128(a2)
  100634:	2020                	fld	fs0,64(s0)
  100636:	2020                	fld	fs0,64(s0)
  100638:	2041                	jal	1006b8 <cmd_table+0x2c>
  10063a:	6944                	flw	fs1,20(a0)
  10063c:	61746967          	0x61746967
  100640:	206c                	fld	fa1,192(s0)
  100642:	6544                	flw	fs1,12(a0)
  100644:	6e676973          	csrrsi	s2,0x6e6,14
  100648:	7020                	flw	fs0,96(s0)
  10064a:	6f72                	flw	ft10,28(sp)
  10064c:	656a                	flw	fa0,152(sp)
  10064e:	202c7463          	bgeu	s8,sp,100856 <backup_screen+0xfa>
  100652:	3032                	fld	ft0,296(sp)
  100654:	3232                	fld	ft4,296(sp)
  100656:	0000                	unimp

00100658 <difficulty>:
  100658:	03e8                	addi	a0,sp,460
  10065a:	0000                	unimp
  10065c:	01f4                	addi	a3,sp,204
  10065e:	0000                	unimp
  100660:	0096                	slli	ra,ra,0x5
  100662:	0000                	unimp
  100664:	007d                	c.nop	31
  100666:	0000                	unimp
  100668:	0032                	c.slli	zero,0xc
  10066a:	0000                	unimp

0010066c <dx>:
  10066c:	0000                	unimp
  10066e:	0000                	unimp
  100670:	0000                	unimp
  100672:	0000                	unimp
  100674:	ffff                	0xffff
  100676:	ffff                	0xffff
  100678:	0001                	nop
  10067a:	0000                	unimp

0010067c <dy>:
  10067c:	ffff                	0xffff
  10067e:	ffff                	0xffff
  100680:	0001                	nop
  100682:	0000                	unimp
  100684:	0000                	unimp
  100686:	0000                	unimp
  100688:	0000                	unimp
  10068a:	0000                	unimp

0010068c <cmd_table>:
  10068c:	0290                	addi	a2,sp,320
  10068e:	0010                	0x10
  100690:	0298                	addi	a4,sp,320
  100692:	0010                	0x10
  100694:	2134                	fld	fa3,64(a0)
  100696:	0000                	unimp
  100698:	02cc                	addi	a1,sp,324
  10069a:	0010                	0x10
  10069c:	02d4                	addi	a3,sp,324
  10069e:	0010                	0x10
  1006a0:	1dac                	addi	a1,sp,760
  1006a2:	0000                	unimp
  1006a4:	02f8                	addi	a4,sp,332
  1006a6:	0010                	0x10
  1006a8:	0300                	addi	s0,sp,384
  1006aa:	0010                	0x10
  1006ac:	1de4                	addi	s1,sp,764
  1006ae:	0000                	unimp
  1006b0:	0314                	addi	a3,sp,384
  1006b2:	0010                	0x10
  1006b4:	0318                	addi	a4,sp,384
  1006b6:	0010                	0x10
  1006b8:	1ed4                	addi	a3,sp,884
  1006ba:	0000                	unimp
  1006bc:	037c                	addi	a5,sp,396
  1006be:	0010                	0x10
  1006c0:	0384                	addi	s1,sp,448
  1006c2:	0010                	0x10
  1006c4:	1a4c                	addi	a1,sp,308
  1006c6:	0000                	unimp
  1006c8:	0398                	addi	a4,sp,448
  1006ca:	0010                	0x10
  1006cc:	03a0                	addi	s0,sp,456
  1006ce:	0010                	0x10
  1006d0:	0eac                	addi	a1,sp,856
  1006d2:	0000                	unimp
  1006d4:	03b8                	addi	a4,sp,456
  1006d6:	0010                	0x10
  1006d8:	03c0                	addi	s0,sp,452
  1006da:	0010                	0x10
  1006dc:	1678                	addi	a4,sp,812
  1006de:	0000                	unimp
  1006e0:	03d0                	addi	a2,sp,452
  1006e2:	0010                	0x10
  1006e4:	03d8                	addi	a4,sp,452
  1006e6:	0010                	0x10
  1006e8:	20fc                	fld	fa5,192(s1)
  1006ea:	0000                	unimp

001006ec <hello>:
  1006ec:	6548                	flw	fa0,12(a0)
  1006ee:	6c6c                	flw	fa1,92(s0)
  1006f0:	6f57206f          	j	1735e4 <_end+0x6d9e4>
  1006f4:	6c72                	flw	fs8,28(sp)
  1006f6:	2064                	fld	fs1,192(s0)
  1006f8:	3032                	fld	ft0,296(sp)
  1006fa:	3232                	fld	ft4,296(sp)
  1006fc:	2820                	fld	fs0,80(s0)
  1006fe:	2020                	fld	fs0,64(s0)
  100700:	203d                	jal	10072e <hello+0x42>
  100702:	203d2077          	0x203d2077
  100706:	0a29                	addi	s4,s4,10
  100708:	676e6f43          	fmadd.q	ft10,ft8,fs6,fa2,unknown
  10070c:	6172                	flw	ft2,28(sp)
  10070e:	7574                	flw	fa3,108(a0)
  100710:	616c                	flw	fa1,68(a0)
  100712:	6974                	flw	fa3,84(a0)
  100714:	21736e6f          	jal	t3,13712a <_end+0x3152a>
  100718:	4420                	lw	s0,72(s0)
  10071a:	7369                	lui	t1,0xffffa
  10071c:	6c70                	flw	fa2,92(s0)
  10071e:	7961                	lui	s2,0xffff8
  100720:	6465                	lui	s0,0x19
  100722:	7320                	flw	fs0,96(a4)
  100724:	6375                	lui	t1,0x1d
  100726:	73736563          	bltu	t1,s7,100e50 <backup_screen+0x6f4>
  10072a:	7566                	flw	fa0,120(sp)
  10072c:	6c6c                	flw	fa1,92(s0)
  10072e:	2e79                	jal	100acc <backup_screen+0x370>
  100730:	4e0a                	lw	t3,128(sp)
  100732:	7420776f          	jal	a4,107e74 <_end+0x2274>
  100736:	7972                	flw	fs2,60(sp)
  100738:	7420                	flw	fs0,104(s0)
  10073a:	7079                	c.lui	zero,0xffffe
  10073c:	6e69                	lui	t3,0x1a
  10073e:	000a3a67          	0xa3a67
